
target/riscv64gc-unknown-none-elf/release/lab1os:	file format elf64-littleriscv

Disassembly of section .text:

0000000080200000 <stext>:
80200000: 17 31 01 00  	auipc	sp, 19
80200004: 13 01 01 00  	mv	sp, sp
80200008: 97 00 00 00  	auipc	ra, 0
8020000c: e7 80 20 09  	jalr	146(ra)

0000000080200010 <_ZN44_$LT$$RF$T$u20$as$u20$core..fmt..Display$GT$3fmt17h41e88520a25cf1caE>:
80200010: 41 11        	addi	sp, sp, -16
80200012: 06 e4        	sd	ra, 8(sp)
80200014: 22 e0        	sd	s0, 0(sp)
80200016: 00 08        	addi	s0, sp, 16
80200018: 10 61        	ld	a2, 0(a0)
8020001a: 14 65        	ld	a3, 8(a0)
8020001c: 2e 87        	mv	a4, a1
8020001e: 32 85        	mv	a0, a2
80200020: b6 85        	mv	a1, a3
80200022: 3a 86        	mv	a2, a4
80200024: a2 60        	ld	ra, 8(sp)
80200026: 02 64        	ld	s0, 0(sp)
80200028: 41 01        	addi	sp, sp, 16
8020002a: 17 13 00 00  	auipc	t1, 1
8020002e: 67 00 a3 c8  	jr	-886(t1)

0000000080200032 <_ZN44_$LT$$RF$T$u20$as$u20$core..fmt..Display$GT$3fmt17h57a217fa3a3567e4E>:
80200032: 41 11        	addi	sp, sp, -16
80200034: 06 e4        	sd	ra, 8(sp)
80200036: 22 e0        	sd	s0, 0(sp)
80200038: 00 08        	addi	s0, sp, 16
8020003a: 08 61        	ld	a0, 0(a0)
8020003c: a2 60        	ld	ra, 8(sp)
8020003e: 02 64        	ld	s0, 0(sp)
80200040: 41 01        	addi	sp, sp, 16
80200042: 17 03 00 00  	auipc	t1, 0
80200046: 67 00 43 63  	jr	1588(t1)

000000008020004a <_ZN6lab1os3sbi8shutdown17h986dc4c38953e906E>:
; pub fn shutdown() -> ! {
8020004a: 39 71        	addi	sp, sp, -64
8020004c: 06 fc        	sd	ra, 56(sp)
8020004e: 22 f8        	sd	s0, 48(sp)
80200050: 80 00        	addi	s0, sp, 64
;         asm!(
80200052: a1 48        	li	a7, 8
80200054: 01 45        	li	a0, 0
80200056: 81 45        	li	a1, 0
80200058: 01 46        	li	a2, 0
8020005a: 73 00 00 00  	ecall	

000000008020005e <.Lpcrel_hi0>:
8020005e: 17 15 00 00  	auipc	a0, 1
80200062: 13 05 25 fb  	addi	a0, a0, -78
80200066: 23 38 a4 fc  	sd	a0, -48(s0)
8020006a: 05 45        	li	a0, 1
8020006c: 23 3c a4 fc  	sd	a0, -40(s0)
80200070: 23 30 04 fc  	sd	zero, -64(s0)

0000000080200074 <.Lpcrel_hi1>:
80200074: 17 15 00 00  	auipc	a0, 1
80200078: 13 05 c5 fa  	addi	a0, a0, -84
8020007c: 23 30 a4 fe  	sd	a0, -32(s0)
80200080: 23 34 04 fe  	sd	zero, -24(s0)

0000000080200084 <.Lpcrel_hi2>:
;     panic!("Shutdown Now!");
80200084: 17 15 00 00  	auipc	a0, 1
80200088: 93 05 c5 fa  	addi	a1, a0, -84
8020008c: 13 05 04 fc  	addi	a0, s0, -64
80200090: 97 00 00 00  	auipc	ra, 0
80200094: e7 80 00 54  	jalr	1344(ra)
80200098: 00 00        	unimp	

000000008020009a <rust_main>:
; pub fn rust_main() -> ! {
8020009a: 5d 71        	addi	sp, sp, -80
8020009c: 86 e4        	sd	ra, 72(sp)
8020009e: a2 e0        	sd	s0, 64(sp)
802000a0: 26 fc        	sd	s1, 56(sp)
802000a2: 4a f8        	sd	s2, 48(sp)
802000a4: 80 08        	addi	s0, sp, 80

00000000802000a6 <.Lpcrel_hi1>:
802000a6: 17 35 01 00  	auipc	a0, 19
802000aa: 13 05 a5 f5  	addi	a0, a0, -166

00000000802000ae <.Lpcrel_hi2>:
802000ae: 97 35 01 00  	auipc	a1, 19
802000b2: 93 85 25 f5  	addi	a1, a1, -174
802000b6: 63 f9 a5 00  	bgeu	a1, a0, 0x802000c8 <.Lpcrel_hi3>
802000ba: 13 86 15 00  	addi	a2, a1, 1
802000be: 23 80 05 00  	sb	zero, 0(a1)
802000c2: b2 85        	mv	a1, a2
802000c4: e3 6b a6 fe  	bltu	a2, a0, 0x802000ba <.Lpcrel_hi2+0xc>

00000000802000c8 <.Lpcrel_hi3>:
802000c8: 17 15 00 00  	auipc	a0, 1
802000cc: 13 05 05 f9  	addi	a0, a0, -112
802000d0: 23 30 a4 fc  	sd	a0, -64(s0)
802000d4: 05 49        	li	s2, 1
802000d6: 23 34 24 fd  	sd	s2, -56(s0)
802000da: 23 38 04 fa  	sd	zero, -80(s0)

00000000802000de <.Lpcrel_hi4>:
802000de: 17 15 00 00  	auipc	a0, 1
802000e2: 93 04 a5 f8  	addi	s1, a0, -118
802000e6: 23 38 94 fc  	sd	s1, -48(s0)
802000ea: 23 3c 04 fc  	sd	zero, -40(s0)
;     println!("Hello, AmyYin!");
802000ee: 13 05 04 fb  	addi	a0, s0, -80
802000f2: 97 00 00 00  	auipc	ra, 0
802000f6: e7 80 60 44  	jalr	1094(ra)

00000000802000fa <.Lpcrel_hi5>:
802000fa: 17 15 00 00  	auipc	a0, 1
802000fe: 13 05 e5 f7  	addi	a0, a0, -130
80200102: 23 30 a4 fc  	sd	a0, -64(s0)
80200106: 23 34 24 fd  	sd	s2, -56(s0)
8020010a: 23 38 04 fa  	sd	zero, -80(s0)
8020010e: 23 38 94 fc  	sd	s1, -48(s0)
80200112: 23 3c 04 fc  	sd	zero, -40(s0)
;     println!("Hello, MiseZi!");
80200116: 13 05 04 fb  	addi	a0, s0, -80
8020011a: 97 00 00 00  	auipc	ra, 0
8020011e: e7 80 e0 41  	jalr	1054(ra)

0000000080200122 <.Lpcrel_hi6>:
80200122: 17 15 00 00  	auipc	a0, 1
80200126: 13 05 65 f7  	addi	a0, a0, -138
8020012a: 23 30 a4 fc  	sd	a0, -64(s0)
8020012e: 23 34 24 fd  	sd	s2, -56(s0)
80200132: 23 38 04 fa  	sd	zero, -80(s0)
80200136: 23 38 94 fc  	sd	s1, -48(s0)
8020013a: 23 3c 04 fc  	sd	zero, -40(s0)

000000008020013e <.Lpcrel_hi7>:
;     panic!("Shutdown!");
8020013e: 17 15 00 00  	auipc	a0, 1
80200142: 93 05 a5 f7  	addi	a1, a0, -134
80200146: 13 05 04 fb  	addi	a0, s0, -80
8020014a: 97 00 00 00  	auipc	ra, 0
8020014e: e7 80 60 48  	jalr	1158(ra)
80200152: 00 00        	unimp	

0000000080200154 <rust_begin_unwind>:
; fn panic(info: &PanicInfo) -> ! {       // 返回值为空，即不返回，发散函数
80200154: 71 71        	addi	sp, sp, -176
80200156: 06 f5        	sd	ra, 168(sp)
80200158: 22 f1        	sd	s0, 160(sp)
8020015a: 26 ed        	sd	s1, 152(sp)
8020015c: 00 19        	addi	s0, sp, 176
8020015e: aa 84        	mv	s1, a0
;     if let Some(location) = info.location() {
80200160: 97 00 00 00  	auipc	ra, 0
80200164: e7 80 c0 46  	jalr	1132(ra)
80200168: 15 e5        	bnez	a0, 0x80200194 <.Lpcrel_hi1+0x16>
;         println!("Panicked: {}", info.message().unwrap());
8020016a: 26 85        	mv	a0, s1
8020016c: 97 00 00 00  	auipc	ra, 0
80200170: e7 80 c0 45  	jalr	1116(ra)
80200174: 31 ed        	bnez	a0, 0x802001d0 <.Lpcrel_hi9+0x16>

0000000080200176 <.Lpcrel_hi0>:
80200176: 17 15 00 00  	auipc	a0, 1
8020017a: 13 05 a5 f8  	addi	a0, a0, -118

000000008020017e <.Lpcrel_hi1>:
8020017e: 97 15 00 00  	auipc	a1, 1
80200182: 13 86 25 fc  	addi	a2, a1, -62
80200186: 93 05 b0 02  	li	a1, 43
8020018a: 97 00 00 00  	auipc	ra, 0
8020018e: e7 80 40 47  	jalr	1140(ra)
80200192: 00 00        	unimp	
80200194: 0c 61        	ld	a1, 0(a0)
80200196: 10 65        	ld	a2, 8(a0)
80200198: 23 34 b4 f8  	sd	a1, -120(s0)
8020019c: 23 38 c4 f8  	sd	a2, -112(s0)
802001a0: 08 49        	lw	a0, 16(a0)
802001a2: 23 2e a4 f8  	sw	a0, -100(s0)
;             info.message().unwrap()
802001a6: 26 85        	mv	a0, s1
802001a8: 97 00 00 00  	auipc	ra, 0
802001ac: e7 80 00 42  	jalr	1056(ra)
802001b0: 45 e5        	bnez	a0, 0x80200258 <.Lpcrel_hi7+0x1a>

00000000802001b2 <.Lpcrel_hi8>:
802001b2: 17 15 00 00  	auipc	a0, 1
802001b6: 13 05 e5 f4  	addi	a0, a0, -178

00000000802001ba <.Lpcrel_hi9>:
802001ba: 97 15 00 00  	auipc	a1, 1
802001be: 13 86 e5 fe  	addi	a2, a1, -18
802001c2: 93 05 b0 02  	li	a1, 43
802001c6: 97 00 00 00  	auipc	ra, 0
802001ca: e7 80 80 43  	jalr	1080(ra)
802001ce: 00 00        	unimp	
802001d0: 23 34 a4 fa  	sd	a0, -88(s0)
802001d4: 13 05 84 fa  	addi	a0, s0, -88
;         println!("Panicked: {}", info.message().unwrap());
802001d8: 23 3c a4 f4  	sd	a0, -168(s0)

00000000802001dc <.Lpcrel_hi2>:
802001dc: 17 05 00 00  	auipc	a0, 0
802001e0: 13 05 65 e5  	addi	a0, a0, -426
802001e4: 23 30 a4 f6  	sd	a0, -160(s0)
802001e8: 13 05 04 fe  	addi	a0, s0, -32
;     Stdout.write_fmt(args).unwrap();
802001ec: 23 34 a4 f8  	sd	a0, -120(s0)
802001f0: 23 38 04 fa  	sd	zero, -80(s0)

00000000802001f4 <.Lpcrel_hi3>:
802001f4: 17 15 00 00  	auipc	a0, 1
802001f8: 13 05 c5 ee  	addi	a0, a0, -276
802001fc: 23 30 a4 fc  	sd	a0, -64(s0)
80200200: 09 45        	li	a0, 2
80200202: 23 34 a4 fc  	sd	a0, -56(s0)
80200206: 13 05 84 f5  	addi	a0, s0, -168
8020020a: 23 38 a4 fc  	sd	a0, -48(s0)
8020020e: 05 45        	li	a0, 1
80200210: 23 3c a4 fc  	sd	a0, -40(s0)

0000000080200214 <.Lpcrel_hi4>:
80200214: 17 15 00 00  	auipc	a0, 1
80200218: 93 05 c5 fa  	addi	a1, a0, -84
8020021c: 13 05 84 f8  	addi	a0, s0, -120
80200220: 13 06 04 fb  	addi	a2, s0, -80
80200224: 97 00 00 00  	auipc	ra, 0
80200228: e7 80 40 46  	jalr	1124(ra)
8020022c: 71 cd        	beqz	a0, 0x80200308 <.Lpcrel_hi17+0x1a>

000000008020022e <.Lpcrel_hi5>:
8020022e: 17 15 00 00  	auipc	a0, 1
80200232: 13 05 25 fc  	addi	a0, a0, -62

0000000080200236 <.Lpcrel_hi6>:
80200236: 97 15 00 00  	auipc	a1, 1
8020023a: 93 86 a5 fe  	addi	a3, a1, -22

000000008020023e <.Lpcrel_hi7>:
8020023e: 97 15 00 00  	auipc	a1, 1
80200242: 13 87 25 01  	addi	a4, a1, 18
80200246: 93 05 b0 02  	li	a1, 43
8020024a: 13 06 04 fe  	addi	a2, s0, -32
8020024e: 97 00 00 00  	auipc	ra, 0
80200252: e7 80 c0 3d  	jalr	988(ra)
80200256: 00 00        	unimp	
80200258: 23 30 a4 fa  	sd	a0, -96(s0)
8020025c: 13 05 84 f8  	addi	a0, s0, -120
;         println!(
80200260: 23 3c a4 f4  	sd	a0, -168(s0)

0000000080200264 <.Lpcrel_hi10>:
80200264: 17 05 00 00  	auipc	a0, 0
80200268: 13 05 c5 da  	addi	a0, a0, -596
8020026c: 23 30 a4 f6  	sd	a0, -160(s0)
80200270: 13 05 c4 f9  	addi	a0, s0, -100
80200274: 23 34 a4 f6  	sd	a0, -152(s0)

0000000080200278 <.Lpcrel_hi11>:
80200278: 17 15 00 00  	auipc	a0, 1
8020027c: 13 05 45 d4  	addi	a0, a0, -700
80200280: 23 38 a4 f6  	sd	a0, -144(s0)
80200284: 13 05 04 fa  	addi	a0, s0, -96
80200288: 23 3c a4 f6  	sd	a0, -136(s0)

000000008020028c <.Lpcrel_hi12>:
8020028c: 17 05 00 00  	auipc	a0, 0
80200290: 13 05 65 da  	addi	a0, a0, -602
80200294: 23 30 a4 f8  	sd	a0, -128(s0)
80200298: 13 05 04 fe  	addi	a0, s0, -32
;     Stdout.write_fmt(args).unwrap();
8020029c: 23 34 a4 fa  	sd	a0, -88(s0)
802002a0: 23 38 04 fa  	sd	zero, -80(s0)

00000000802002a4 <.Lpcrel_hi13>:
802002a4: 17 15 00 00  	auipc	a0, 1
802002a8: 13 05 45 ec  	addi	a0, a0, -316
802002ac: 23 30 a4 fc  	sd	a0, -64(s0)
802002b0: 11 45        	li	a0, 4
802002b2: 23 34 a4 fc  	sd	a0, -56(s0)
802002b6: 13 05 84 f5  	addi	a0, s0, -168
802002ba: 23 38 a4 fc  	sd	a0, -48(s0)
802002be: 0d 45        	li	a0, 3
802002c0: 23 3c a4 fc  	sd	a0, -40(s0)

00000000802002c4 <.Lpcrel_hi14>:
802002c4: 17 15 00 00  	auipc	a0, 1
802002c8: 93 05 c5 ef  	addi	a1, a0, -260
802002cc: 13 05 84 fa  	addi	a0, s0, -88
802002d0: 13 06 04 fb  	addi	a2, s0, -80
802002d4: 97 00 00 00  	auipc	ra, 0
802002d8: e7 80 40 3b  	jalr	948(ra)
802002dc: 15 c5        	beqz	a0, 0x80200308 <.Lpcrel_hi17+0x1a>

00000000802002de <.Lpcrel_hi15>:
802002de: 17 15 00 00  	auipc	a0, 1
802002e2: 13 05 25 f1  	addi	a0, a0, -238

00000000802002e6 <.Lpcrel_hi16>:
802002e6: 97 15 00 00  	auipc	a1, 1
802002ea: 93 86 a5 f3  	addi	a3, a1, -198

00000000802002ee <.Lpcrel_hi17>:
802002ee: 97 15 00 00  	auipc	a1, 1
802002f2: 13 87 25 f6  	addi	a4, a1, -158
802002f6: 93 05 b0 02  	li	a1, 43
802002fa: 13 06 04 fe  	addi	a2, s0, -32
802002fe: 97 00 00 00  	auipc	ra, 0
80200302: e7 80 c0 32  	jalr	812(ra)
80200306: 00 00        	unimp	
;     shutdown()
80200308: 97 00 00 00  	auipc	ra, 0
8020030c: e7 80 20 d4  	jalr	-702(ra)
80200310: 00 00        	unimp	

0000000080200312 <_ZN4core3ptr56drop_in_place$LT$$RF$mut$u20$lab1os..console..Stdout$GT$17h8eaeb22bdf33e835E.llvm.5120376563365681124>:
80200312: 41 11        	addi	sp, sp, -16
80200314: 06 e4        	sd	ra, 8(sp)
80200316: 22 e0        	sd	s0, 0(sp)
80200318: 00 08        	addi	s0, sp, 16
8020031a: a2 60        	ld	ra, 8(sp)
8020031c: 02 64        	ld	s0, 0(sp)
8020031e: 41 01        	addi	sp, sp, 16
80200320: 82 80        	ret

0000000080200322 <_ZN50_$LT$$RF$mut$u20$W$u20$as$u20$core..fmt..Write$GT$10write_char17h8734c7d2b2d355c9E.llvm.5120376563365681124>:
80200322: 01 11        	addi	sp, sp, -32
80200324: 06 ec        	sd	ra, 24(sp)
80200326: 22 e8        	sd	s0, 16(sp)
80200328: 00 10        	addi	s0, sp, 32
8020032a: 1b 85 05 00  	sext.w	a0, a1
8020032e: 13 06 00 08  	li	a2, 128
80200332: 23 26 04 fe  	sw	zero, -20(s0)
80200336: 63 76 c5 00  	bgeu	a0, a2, 0x80200342 <_ZN50_$LT$$RF$mut$u20$W$u20$as$u20$core..fmt..Write$GT$10write_char17h8734c7d2b2d355c9E.llvm.5120376563365681124+0x20>
8020033a: 23 06 b4 fe  	sb	a1, -20(s0)
8020033e: 05 47        	li	a4, 1
80200340: 71 a0        	j	0x802003cc <_ZN50_$LT$$RF$mut$u20$W$u20$as$u20$core..fmt..Write$GT$10write_char17h8734c7d2b2d355c9E.llvm.5120376563365681124+0xaa>
80200342: 1b d5 b5 00  	srliw	a0, a1, 11
80200346: 19 ed        	bnez	a0, 0x80200364 <_ZN50_$LT$$RF$mut$u20$W$u20$as$u20$core..fmt..Write$GT$10write_char17h8734c7d2b2d355c9E.llvm.5120376563365681124+0x42>
80200348: 13 d5 65 00  	srli	a0, a1, 6
8020034c: 13 65 05 0c  	ori	a0, a0, 192
80200350: 23 06 a4 fe  	sb	a0, -20(s0)
80200354: 13 f5 f5 03  	andi	a0, a1, 63
80200358: 13 05 05 08  	addi	a0, a0, 128
8020035c: a3 06 a4 fe  	sb	a0, -19(s0)
80200360: 09 47        	li	a4, 2
80200362: ad a0        	j	0x802003cc <_ZN50_$LT$$RF$mut$u20$W$u20$as$u20$core..fmt..Write$GT$10write_char17h8734c7d2b2d355c9E.llvm.5120376563365681124+0xaa>
80200364: 1b d5 05 01  	srliw	a0, a1, 16
80200368: 15 e5        	bnez	a0, 0x80200394 <_ZN50_$LT$$RF$mut$u20$W$u20$as$u20$core..fmt..Write$GT$10write_char17h8734c7d2b2d355c9E.llvm.5120376563365681124+0x72>
8020036a: 13 d5 c5 00  	srli	a0, a1, 12
8020036e: 13 65 05 0e  	ori	a0, a0, 224
80200372: 23 06 a4 fe  	sb	a0, -20(s0)
80200376: 13 95 45 03  	slli	a0, a1, 52
8020037a: 69 91        	srli	a0, a0, 58
8020037c: 13 05 05 08  	addi	a0, a0, 128
80200380: a3 06 a4 fe  	sb	a0, -19(s0)
80200384: 13 f5 f5 03  	andi	a0, a1, 63
80200388: 13 05 05 08  	addi	a0, a0, 128
8020038c: 23 07 a4 fe  	sb	a0, -18(s0)
80200390: 0d 47        	li	a4, 3
80200392: 2d a8        	j	0x802003cc <_ZN50_$LT$$RF$mut$u20$W$u20$as$u20$core..fmt..Write$GT$10write_char17h8734c7d2b2d355c9E.llvm.5120376563365681124+0xaa>
80200394: 13 95 b5 02  	slli	a0, a1, 43
80200398: 75 91        	srli	a0, a0, 61
8020039a: 13 05 05 0f  	addi	a0, a0, 240
8020039e: 23 06 a4 fe  	sb	a0, -20(s0)
802003a2: 13 95 e5 02  	slli	a0, a1, 46
802003a6: 69 91        	srli	a0, a0, 58
802003a8: 13 05 05 08  	addi	a0, a0, 128
802003ac: a3 06 a4 fe  	sb	a0, -19(s0)
802003b0: 13 95 45 03  	slli	a0, a1, 52
802003b4: 69 91        	srli	a0, a0, 58
802003b6: 13 05 05 08  	addi	a0, a0, 128
802003ba: 23 07 a4 fe  	sb	a0, -18(s0)
802003be: 13 f5 f5 03  	andi	a0, a1, 63
802003c2: 13 05 05 08  	addi	a0, a0, 128
802003c6: a3 07 a4 fe  	sb	a0, -17(s0)
802003ca: 11 47        	li	a4, 4
802003cc: 93 06 c4 fe  	addi	a3, s0, -20
802003d0: 36 97        	add	a4, a4, a3
802003d2: 13 03 f0 0d  	li	t1, 223
802003d6: 13 08 00 0f  	li	a6, 240
802003da: b7 02 11 00  	lui	t0, 272
802003de: 85 48        	li	a7, 1
802003e0: 01 a8        	j	0x802003f0 <_ZN50_$LT$$RF$mut$u20$W$u20$as$u20$core..fmt..Write$GT$10write_char17h8734c7d2b2d355c9E.llvm.5120376563365681124+0xce>
802003e2: 85 06        	addi	a3, a3, 1
;         asm!(
802003e4: 81 45        	li	a1, 0
802003e6: 01 46        	li	a2, 0
802003e8: 73 00 00 00  	ecall	
802003ec: 63 8f e6 04  	beq	a3, a4, 0x8020044a <_ZN50_$LT$$RF$mut$u20$W$u20$as$u20$core..fmt..Write$GT$10write_char17h8734c7d2b2d355c9E.llvm.5120376563365681124+0x128>
802003f0: 83 85 06 00  	lb	a1, 0(a3)
802003f4: 13 f5 f5 0f  	andi	a0, a1, 255
802003f8: e3 d5 05 fe  	bgez	a1, 0x802003e2 <_ZN50_$LT$$RF$mut$u20$W$u20$as$u20$core..fmt..Write$GT$10write_char17h8734c7d2b2d355c9E.llvm.5120376563365681124+0xc0>
802003fc: 03 c6 16 00  	lbu	a2, 1(a3)
80200400: 93 75 f5 01  	andi	a1, a0, 31
80200404: 13 76 f6 03  	andi	a2, a2, 63
80200408: 63 77 a3 02  	bgeu	t1, a0, 0x80200436 <_ZN50_$LT$$RF$mut$u20$W$u20$as$u20$core..fmt..Write$GT$10write_char17h8734c7d2b2d355c9E.llvm.5120376563365681124+0x114>
8020040c: 83 c7 26 00  	lbu	a5, 2(a3)
80200410: 1a 06        	slli	a2, a2, 6
80200412: 93 f7 f7 03  	andi	a5, a5, 63
80200416: 5d 8e        	or	a2, a2, a5
80200418: 63 64 05 03  	bltu	a0, a6, 0x80200440 <_ZN50_$LT$$RF$mut$u20$W$u20$as$u20$core..fmt..Write$GT$10write_char17h8734c7d2b2d355c9E.llvm.5120376563365681124+0x11e>
8020041c: 03 c5 36 00  	lbu	a0, 3(a3)
80200420: f6 15        	slli	a1, a1, 61
80200422: ad 91        	srli	a1, a1, 43
80200424: 1a 06        	slli	a2, a2, 6
80200426: 13 75 f5 03  	andi	a0, a0, 63
8020042a: 51 8d        	or	a0, a0, a2
8020042c: 4d 8d        	or	a0, a0, a1
;         for c in s.chars() {
8020042e: 63 0e 55 00  	beq	a0, t0, 0x8020044a <_ZN50_$LT$$RF$mut$u20$W$u20$as$u20$core..fmt..Write$GT$10write_char17h8734c7d2b2d355c9E.llvm.5120376563365681124+0x128>
80200432: 91 06        	addi	a3, a3, 4
80200434: 45 bf        	j	0x802003e4 <_ZN50_$LT$$RF$mut$u20$W$u20$as$u20$core..fmt..Write$GT$10write_char17h8734c7d2b2d355c9E.llvm.5120376563365681124+0xc2>
80200436: 89 06        	addi	a3, a3, 2
80200438: 13 95 65 00  	slli	a0, a1, 6
8020043c: 51 8d        	or	a0, a0, a2
8020043e: 5d b7        	j	0x802003e4 <_ZN50_$LT$$RF$mut$u20$W$u20$as$u20$core..fmt..Write$GT$10write_char17h8734c7d2b2d355c9E.llvm.5120376563365681124+0xc2>
80200440: 8d 06        	addi	a3, a3, 3
80200442: 13 95 c5 00  	slli	a0, a1, 12
80200446: 51 8d        	or	a0, a0, a2
80200448: 71 bf        	j	0x802003e4 <_ZN50_$LT$$RF$mut$u20$W$u20$as$u20$core..fmt..Write$GT$10write_char17h8734c7d2b2d355c9E.llvm.5120376563365681124+0xc2>
8020044a: 01 45        	li	a0, 0
8020044c: e2 60        	ld	ra, 24(sp)
8020044e: 42 64        	ld	s0, 16(sp)
80200450: 05 61        	addi	sp, sp, 32
80200452: 82 80        	ret

0000000080200454 <_ZN50_$LT$$RF$mut$u20$W$u20$as$u20$core..fmt..Write$GT$9write_fmt17haf78273b8110a1e9E.llvm.5120376563365681124>:
80200454: 5d 71        	addi	sp, sp, -80
80200456: 86 e4        	sd	ra, 72(sp)
80200458: a2 e0        	sd	s0, 64(sp)
8020045a: 80 08        	addi	s0, sp, 80
8020045c: 90 75        	ld	a2, 40(a1)
8020045e: 94 71        	ld	a3, 32(a1)
80200460: 98 6d        	ld	a4, 24(a1)
80200462: 23 34 c4 fe  	sd	a2, -24(s0)
80200466: 23 30 d4 fe  	sd	a3, -32(s0)
8020046a: 23 3c e4 fc  	sd	a4, -40(s0)
8020046e: 90 69        	ld	a2, 16(a1)
80200470: 94 65        	ld	a3, 8(a1)
80200472: 8c 61        	ld	a1, 0(a1)
80200474: 08 61        	ld	a0, 0(a0)
80200476: 23 38 c4 fc  	sd	a2, -48(s0)
8020047a: 23 34 d4 fc  	sd	a3, -56(s0)
8020047e: 23 30 b4 fc  	sd	a1, -64(s0)
80200482: 23 3c a4 fa  	sd	a0, -72(s0)

0000000080200486 <.Lpcrel_hi0>:
80200486: 17 15 00 00  	auipc	a0, 1
8020048a: 93 05 a5 d3  	addi	a1, a0, -710
8020048e: 13 05 84 fb  	addi	a0, s0, -72
80200492: 13 06 04 fc  	addi	a2, s0, -64
80200496: 97 00 00 00  	auipc	ra, 0
8020049a: e7 80 20 1f  	jalr	498(ra)
8020049e: a6 60        	ld	ra, 72(sp)
802004a0: 06 64        	ld	s0, 64(sp)
802004a2: 61 61        	addi	sp, sp, 80
802004a4: 82 80        	ret

00000000802004a6 <_ZN50_$LT$$RF$mut$u20$W$u20$as$u20$core..fmt..Write$GT$9write_str17h13a821ae60e7458dE.llvm.5120376563365681124>:
802004a6: 41 11        	addi	sp, sp, -16
802004a8: 06 e4        	sd	ra, 8(sp)
802004aa: 22 e0        	sd	s0, 0(sp)
802004ac: 00 08        	addi	s0, sp, 16
802004ae: 41 c2        	beqz	a2, 0x8020052e <_ZN50_$LT$$RF$mut$u20$W$u20$as$u20$core..fmt..Write$GT$9write_str17h13a821ae60e7458dE.llvm.5120376563365681124+0x88>
802004b0: ae 86        	mv	a3, a1
802004b2: 33 87 c5 00  	add	a4, a1, a2
802004b6: 13 03 f0 0d  	li	t1, 223
802004ba: 13 08 00 0f  	li	a6, 240
802004be: b7 02 11 00  	lui	t0, 272
802004c2: 85 48        	li	a7, 1
802004c4: 01 a8        	j	0x802004d4 <_ZN50_$LT$$RF$mut$u20$W$u20$as$u20$core..fmt..Write$GT$9write_str17h13a821ae60e7458dE.llvm.5120376563365681124+0x2e>
802004c6: 85 06        	addi	a3, a3, 1
;         asm!(
802004c8: 81 45        	li	a1, 0
802004ca: 01 46        	li	a2, 0
802004cc: 73 00 00 00  	ecall	
802004d0: 63 8f e6 04  	beq	a3, a4, 0x8020052e <_ZN50_$LT$$RF$mut$u20$W$u20$as$u20$core..fmt..Write$GT$9write_str17h13a821ae60e7458dE.llvm.5120376563365681124+0x88>
802004d4: 83 85 06 00  	lb	a1, 0(a3)
802004d8: 13 f5 f5 0f  	andi	a0, a1, 255
802004dc: e3 d5 05 fe  	bgez	a1, 0x802004c6 <_ZN50_$LT$$RF$mut$u20$W$u20$as$u20$core..fmt..Write$GT$9write_str17h13a821ae60e7458dE.llvm.5120376563365681124+0x20>
802004e0: 03 c6 16 00  	lbu	a2, 1(a3)
802004e4: 93 75 f5 01  	andi	a1, a0, 31
802004e8: 13 76 f6 03  	andi	a2, a2, 63
802004ec: 63 77 a3 02  	bgeu	t1, a0, 0x8020051a <_ZN50_$LT$$RF$mut$u20$W$u20$as$u20$core..fmt..Write$GT$9write_str17h13a821ae60e7458dE.llvm.5120376563365681124+0x74>
802004f0: 83 c7 26 00  	lbu	a5, 2(a3)
802004f4: 1a 06        	slli	a2, a2, 6
802004f6: 93 f7 f7 03  	andi	a5, a5, 63
802004fa: 5d 8e        	or	a2, a2, a5
802004fc: 63 64 05 03  	bltu	a0, a6, 0x80200524 <_ZN50_$LT$$RF$mut$u20$W$u20$as$u20$core..fmt..Write$GT$9write_str17h13a821ae60e7458dE.llvm.5120376563365681124+0x7e>
80200500: 03 c5 36 00  	lbu	a0, 3(a3)
80200504: f6 15        	slli	a1, a1, 61
80200506: ad 91        	srli	a1, a1, 43
80200508: 1a 06        	slli	a2, a2, 6
8020050a: 13 75 f5 03  	andi	a0, a0, 63
8020050e: 51 8d        	or	a0, a0, a2
80200510: 4d 8d        	or	a0, a0, a1
;         for c in s.chars() {
80200512: 63 0e 55 00  	beq	a0, t0, 0x8020052e <_ZN50_$LT$$RF$mut$u20$W$u20$as$u20$core..fmt..Write$GT$9write_str17h13a821ae60e7458dE.llvm.5120376563365681124+0x88>
80200516: 91 06        	addi	a3, a3, 4
80200518: 45 bf        	j	0x802004c8 <_ZN50_$LT$$RF$mut$u20$W$u20$as$u20$core..fmt..Write$GT$9write_str17h13a821ae60e7458dE.llvm.5120376563365681124+0x22>
8020051a: 89 06        	addi	a3, a3, 2
8020051c: 13 95 65 00  	slli	a0, a1, 6
80200520: 51 8d        	or	a0, a0, a2
80200522: 5d b7        	j	0x802004c8 <_ZN50_$LT$$RF$mut$u20$W$u20$as$u20$core..fmt..Write$GT$9write_str17h13a821ae60e7458dE.llvm.5120376563365681124+0x22>
80200524: 8d 06        	addi	a3, a3, 3
80200526: 13 95 c5 00  	slli	a0, a1, 12
8020052a: 51 8d        	or	a0, a0, a2
8020052c: 71 bf        	j	0x802004c8 <_ZN50_$LT$$RF$mut$u20$W$u20$as$u20$core..fmt..Write$GT$9write_str17h13a821ae60e7458dE.llvm.5120376563365681124+0x22>
8020052e: 01 45        	li	a0, 0
80200530: a2 60        	ld	ra, 8(sp)
80200532: 02 64        	ld	s0, 0(sp)
80200534: 41 01        	addi	sp, sp, 16
80200536: 82 80        	ret

0000000080200538 <_ZN6lab1os7console5print17ha8ff2fc3b677e177E>:
; pub fn print(args: fmt::Arguments) {
80200538: 5d 71        	addi	sp, sp, -80
8020053a: 86 e4        	sd	ra, 72(sp)
8020053c: a2 e0        	sd	s0, 64(sp)
8020053e: 80 08        	addi	s0, sp, 80
80200540: 0c 75        	ld	a1, 40(a0)
80200542: 10 71        	ld	a2, 32(a0)
80200544: 93 06 84 fe  	addi	a3, s0, -24
;     Stdout.write_fmt(args).unwrap();
80200548: 23 38 d4 fa  	sd	a3, -80(s0)
8020054c: 23 30 b4 fe  	sd	a1, -32(s0)
80200550: 23 3c c4 fc  	sd	a2, -40(s0)
80200554: 0c 6d        	ld	a1, 24(a0)
80200556: 10 69        	ld	a2, 16(a0)
80200558: 14 65        	ld	a3, 8(a0)
8020055a: 08 61        	ld	a0, 0(a0)
8020055c: 23 38 b4 fc  	sd	a1, -48(s0)
80200560: 23 34 c4 fc  	sd	a2, -56(s0)
80200564: 23 30 d4 fc  	sd	a3, -64(s0)
80200568: 23 3c a4 fa  	sd	a0, -72(s0)

000000008020056c <.Lpcrel_hi1>:
8020056c: 17 15 00 00  	auipc	a0, 1
80200570: 93 05 45 c5  	addi	a1, a0, -940
80200574: 13 05 04 fb  	addi	a0, s0, -80
80200578: 13 06 84 fb  	addi	a2, s0, -72
8020057c: 97 00 00 00  	auipc	ra, 0
80200580: e7 80 c0 10  	jalr	268(ra)
80200584: 09 e5        	bnez	a0, 0x8020058e <.Lpcrel_hi2>
; }
80200586: a6 60        	ld	ra, 72(sp)
80200588: 06 64        	ld	s0, 64(sp)
8020058a: 61 61        	addi	sp, sp, 80
8020058c: 82 80        	ret

000000008020058e <.Lpcrel_hi2>:
8020058e: 17 15 00 00  	auipc	a0, 1
80200592: 13 05 25 c6  	addi	a0, a0, -926

0000000080200596 <.Lpcrel_hi3>:
80200596: 97 15 00 00  	auipc	a1, 1
8020059a: 93 86 a5 c8  	addi	a3, a1, -886

000000008020059e <.Lpcrel_hi4>:
8020059e: 97 15 00 00  	auipc	a1, 1
802005a2: 13 87 25 cb  	addi	a4, a1, -846
802005a6: 93 05 b0 02  	li	a1, 43
802005aa: 13 06 84 fe  	addi	a2, s0, -24
802005ae: 97 00 00 00  	auipc	ra, 0
802005b2: e7 80 c0 07  	jalr	124(ra)
802005b6: 00 00        	unimp	

00000000802005b8 <_ZN4core3ops8function6FnOnce9call_once17hd77e42ac26788a6dE>:
802005b8: 08 61        	ld	a0, 0(a0)
802005ba: 01 a0        	j	0x802005ba <_ZN4core3ops8function6FnOnce9call_once17hd77e42ac26788a6dE+0x2>

00000000802005bc <_ZN4core3ptr102drop_in_place$LT$$RF$core..iter..adapters..copied..Copied$LT$core..slice..iter..Iter$LT$u8$GT$$GT$$GT$17h86e83287c5645982E>:
802005bc: 82 80        	ret

00000000802005be <_ZN36_$LT$T$u20$as$u20$core..any..Any$GT$7type_id17h8a427c31b0f51f41E>:
802005be: 17 25 00 00  	auipc	a0, 2
802005c2: 03 35 a5 b5  	ld	a0, -1190(a0)
802005c6: 82 80        	ret

00000000802005c8 <_ZN4core5panic10panic_info9PanicInfo7message17hc93bf00b49dcc23cE>:
802005c8: 08 69        	ld	a0, 16(a0)
802005ca: 82 80        	ret

00000000802005cc <_ZN4core5panic10panic_info9PanicInfo8location17hcad7808788c3a57eE>:
802005cc: 08 6d        	ld	a0, 24(a0)
802005ce: 82 80        	ret

00000000802005d0 <_ZN4core9panicking9panic_fmt17h764d7d77c2f79fa7E>:
802005d0: 79 71        	addi	sp, sp, -48
802005d2: 06 f4        	sd	ra, 40(sp)

00000000802005d4 <.Lpcrel_hi464>:
802005d4: 17 16 00 00  	auipc	a2, 1
802005d8: 13 06 46 c9  	addi	a2, a2, -876
802005dc: 32 e0        	sd	a2, 0(sp)

00000000802005de <.Lpcrel_hi465>:
802005de: 17 16 00 00  	auipc	a2, 1
802005e2: 13 06 a6 c8  	addi	a2, a2, -886
802005e6: 32 e4        	sd	a2, 8(sp)
802005e8: 2a e8        	sd	a0, 16(sp)
802005ea: 2e ec        	sd	a1, 24(sp)
802005ec: 05 45        	li	a0, 1
802005ee: 23 00 a1 02  	sb	a0, 32(sp)
802005f2: 0a 85        	mv	a0, sp
802005f4: 97 00 00 00  	auipc	ra, 0
802005f8: e7 80 00 b6  	jalr	-1184(ra)
802005fc: 00 00        	unimp	

00000000802005fe <_ZN4core9panicking5panic17h937562ede9e66910E>:
802005fe: 5d 71        	addi	sp, sp, -80
80200600: 86 e4        	sd	ra, 72(sp)
80200602: 2a fc        	sd	a0, 56(sp)
80200604: ae e0        	sd	a1, 64(sp)
80200606: 28 18        	addi	a0, sp, 56
80200608: 2a ec        	sd	a0, 24(sp)
8020060a: 05 45        	li	a0, 1
8020060c: 2a f0        	sd	a0, 32(sp)
8020060e: 02 e4        	sd	zero, 8(sp)

0000000080200610 <.Lpcrel_hi468>:
80200610: 17 15 00 00  	auipc	a0, 1
80200614: 13 05 85 c5  	addi	a0, a0, -936
80200618: 2a f4        	sd	a0, 40(sp)
8020061a: 02 f8        	sd	zero, 48(sp)
8020061c: 28 00        	addi	a0, sp, 8
8020061e: b2 85        	mv	a1, a2
80200620: 97 00 00 00  	auipc	ra, 0
80200624: e7 80 00 fb  	jalr	-80(ra)
80200628: 00 00        	unimp	

000000008020062a <_ZN4core6result13unwrap_failed17h1eb3de3f10f5e022E>:
8020062a: 19 71        	addi	sp, sp, -128
8020062c: 86 fc        	sd	ra, 120(sp)
8020062e: 2a e4        	sd	a0, 8(sp)
80200630: 2e e8        	sd	a1, 16(sp)
80200632: 32 ec        	sd	a2, 24(sp)
80200634: 36 f0        	sd	a3, 32(sp)
80200636: 28 00        	addi	a0, sp, 8
80200638: aa ec        	sd	a0, 88(sp)

000000008020063a <.Lpcrel_hi493>:
8020063a: 17 15 00 00  	auipc	a0, 1
8020063e: 13 05 c5 9a  	addi	a0, a0, -1620
80200642: aa f0        	sd	a0, 96(sp)
80200644: 28 08        	addi	a0, sp, 24
80200646: aa f4        	sd	a0, 104(sp)

0000000080200648 <.Lpcrel_hi494>:
80200648: 17 15 00 00  	auipc	a0, 1
8020064c: 13 05 65 99  	addi	a0, a0, -1642
80200650: aa f8        	sd	a0, 112(sp)

0000000080200652 <.Lpcrel_hi495>:
80200652: 17 15 00 00  	auipc	a0, 1
80200656: 13 05 e5 c3  	addi	a0, a0, -962
8020065a: 2a fc        	sd	a0, 56(sp)
8020065c: 09 45        	li	a0, 2
8020065e: aa e0        	sd	a0, 64(sp)
80200660: 02 f4        	sd	zero, 40(sp)
80200662: ac 08        	addi	a1, sp, 88
80200664: ae e4        	sd	a1, 72(sp)
80200666: aa e8        	sd	a0, 80(sp)
80200668: 28 10        	addi	a0, sp, 40
8020066a: ba 85        	mv	a1, a4
8020066c: 97 00 00 00  	auipc	ra, 0
80200670: e7 80 40 f6  	jalr	-156(ra)
80200674: 00 00        	unimp	

0000000080200676 <_ZN59_$LT$core..fmt..Arguments$u20$as$u20$core..fmt..Display$GT$3fmt17h96b2479412d621faE>:
80200676: 90 61        	ld	a2, 0(a1)
80200678: 8c 65        	ld	a1, 8(a1)
8020067a: aa 86        	mv	a3, a0
8020067c: 32 85        	mv	a0, a2
8020067e: 36 86        	mv	a2, a3
80200680: 17 03 00 00  	auipc	t1, 0
80200684: 67 00 83 00  	jr	8(t1)

0000000080200688 <_ZN4core3fmt5write17he0f57d05e7bc040dE>:
80200688: 19 71        	addi	sp, sp, -128
8020068a: 86 fc        	sd	ra, 120(sp)
8020068c: a2 f8        	sd	s0, 112(sp)
8020068e: a6 f4        	sd	s1, 104(sp)
80200690: ca f0        	sd	s2, 96(sp)
80200692: ce ec        	sd	s3, 88(sp)
80200694: d2 e8        	sd	s4, 80(sp)
80200696: d6 e4        	sd	s5, 72(sp)
80200698: da e0        	sd	s6, 64(sp)
8020069a: b2 89        	mv	s3, a2
8020069c: 05 46        	li	a2, 1
8020069e: 16 16        	slli	a2, a2, 37
802006a0: 32 f8        	sd	a2, 48(sp)
802006a2: 0d 46        	li	a2, 3
802006a4: 23 0c c1 02  	sb	a2, 56(sp)
802006a8: 03 b4 09 00  	ld	s0, 0(s3)
802006ac: 02 e8        	sd	zero, 16(sp)
802006ae: 02 f0        	sd	zero, 32(sp)
802006b0: 2a e0        	sd	a0, 0(sp)
802006b2: 2e e4        	sd	a1, 8(sp)
802006b4: 61 c0        	beqz	s0, 0x80200774 <.Lpcrel_hi669+0x98>
802006b6: 03 b5 89 00  	ld	a0, 8(s3)
802006ba: 63 07 05 10  	beqz	a0, 0x802007c8 <.Lpcrel_hi669+0xec>
802006be: 83 b4 09 01  	ld	s1, 16(s3)
802006c2: 93 05 f5 ff  	addi	a1, a0, -1
802006c6: 8e 05        	slli	a1, a1, 3
802006c8: 8d 81        	srli	a1, a1, 3
802006ca: 13 89 15 00  	addi	s2, a1, 1
802006ce: a1 04        	addi	s1, s1, 8
802006d0: 93 05 80 03  	li	a1, 56
802006d4: 33 0a b5 02  	mul	s4, a0, a1
802006d8: 61 04        	addi	s0, s0, 24
802006da: 85 4a        	li	s5, 1

00000000802006dc <.Lpcrel_hi669>:
802006dc: 17 05 00 00  	auipc	a0, 0
802006e0: 13 0b c5 ed  	addi	s6, a0, -292
802006e4: 90 60        	ld	a2, 0(s1)
802006e6: 01 ca        	beqz	a2, 0x802006f6 <.Lpcrel_hi669+0x1a>
802006e8: a2 66        	ld	a3, 8(sp)
802006ea: 02 65        	ld	a0, 0(sp)
802006ec: 83 b5 84 ff  	ld	a1, -8(s1)
802006f0: 94 6e        	ld	a3, 24(a3)
802006f2: 82 96        	jalr	a3
802006f4: 65 ed        	bnez	a0, 0x802007ec <.Lpcrel_hi669+0x110>
802006f6: 48 48        	lw	a0, 20(s0)
802006f8: 2a da        	sw	a0, 52(sp)
802006fa: 03 05 84 01  	lb	a0, 24(s0)
802006fe: 23 0c a1 02  	sb	a0, 56(sp)
80200702: 0c 48        	lw	a1, 16(s0)
80200704: 03 b5 09 02  	ld	a0, 32(s3)
80200708: 2e d8        	sw	a1, 48(sp)
8020070a: 03 36 84 ff  	ld	a2, -8(s0)
8020070e: 0c 60        	ld	a1, 0(s0)
80200710: 01 ce        	beqz	a2, 0x80200728 <.Lpcrel_hi669+0x4c>
80200712: 63 17 56 01  	bne	a2, s5, 0x80200720 <.Lpcrel_hi669+0x44>
80200716: 92 05        	slli	a1, a1, 4
80200718: aa 95        	add	a1, a1, a0
8020071a: 90 65        	ld	a2, 8(a1)
8020071c: 63 04 66 01  	beq	a2, s6, 0x80200724 <.Lpcrel_hi669+0x48>
80200720: 01 46        	li	a2, 0
80200722: 21 a0        	j	0x8020072a <.Lpcrel_hi669+0x4e>
80200724: 8c 61        	ld	a1, 0(a1)
80200726: 8c 61        	ld	a1, 0(a1)
80200728: 05 46        	li	a2, 1
8020072a: 32 e8        	sd	a2, 16(sp)
8020072c: 2e ec        	sd	a1, 24(sp)
8020072e: 03 36 84 fe  	ld	a2, -24(s0)
80200732: 83 35 04 ff  	ld	a1, -16(s0)
80200736: 01 ce        	beqz	a2, 0x8020074e <.Lpcrel_hi669+0x72>
80200738: 63 17 56 01  	bne	a2, s5, 0x80200746 <.Lpcrel_hi669+0x6a>
8020073c: 92 05        	slli	a1, a1, 4
8020073e: aa 95        	add	a1, a1, a0
80200740: 90 65        	ld	a2, 8(a1)
80200742: 63 04 66 01  	beq	a2, s6, 0x8020074a <.Lpcrel_hi669+0x6e>
80200746: 01 46        	li	a2, 0
80200748: 21 a0        	j	0x80200750 <.Lpcrel_hi669+0x74>
8020074a: 8c 61        	ld	a1, 0(a1)
8020074c: 8c 61        	ld	a1, 0(a1)
8020074e: 05 46        	li	a2, 1
80200750: 32 f0        	sd	a2, 32(sp)
80200752: 2e f4        	sd	a1, 40(sp)
80200754: 0c 64        	ld	a1, 8(s0)
80200756: 92 05        	slli	a1, a1, 4
80200758: 2e 95        	add	a0, a0, a1
8020075a: 10 65        	ld	a2, 8(a0)
8020075c: 08 61        	ld	a0, 0(a0)
8020075e: 8a 85        	mv	a1, sp
80200760: 02 96        	jalr	a2
80200762: 49 e5        	bnez	a0, 0x802007ec <.Lpcrel_hi669+0x110>
80200764: c1 04        	addi	s1, s1, 16
80200766: 13 0a 8a fc  	addi	s4, s4, -56
8020076a: 13 04 84 03  	addi	s0, s0, 56
8020076e: e3 1b 0a f6  	bnez	s4, 0x802006e4 <.Lpcrel_hi669+0x8>
80200772: b1 a0        	j	0x802007be <.Lpcrel_hi669+0xe2>
80200774: 03 ba 89 02  	ld	s4, 40(s3)
80200778: 63 08 0a 04  	beqz	s4, 0x802007c8 <.Lpcrel_hi669+0xec>
8020077c: 83 b4 09 02  	ld	s1, 32(s3)
80200780: 03 b4 09 01  	ld	s0, 16(s3)
80200784: 13 05 fa ff  	addi	a0, s4, -1
80200788: 12 05        	slli	a0, a0, 4
8020078a: 11 81        	srli	a0, a0, 4
8020078c: 13 09 15 00  	addi	s2, a0, 1
80200790: 21 04        	addi	s0, s0, 8
80200792: 12 0a        	slli	s4, s4, 4
80200794: a1 04        	addi	s1, s1, 8
80200796: 10 60        	ld	a2, 0(s0)
80200798: 01 ca        	beqz	a2, 0x802007a8 <.Lpcrel_hi669+0xcc>
8020079a: a2 66        	ld	a3, 8(sp)
8020079c: 02 65        	ld	a0, 0(sp)
8020079e: 83 35 84 ff  	ld	a1, -8(s0)
802007a2: 94 6e        	ld	a3, 24(a3)
802007a4: 82 96        	jalr	a3
802007a6: 39 e1        	bnez	a0, 0x802007ec <.Lpcrel_hi669+0x110>
802007a8: 90 60        	ld	a2, 0(s1)
802007aa: 03 b5 84 ff  	ld	a0, -8(s1)
802007ae: 8a 85        	mv	a1, sp
802007b0: 02 96        	jalr	a2
802007b2: 0d ed        	bnez	a0, 0x802007ec <.Lpcrel_hi669+0x110>
802007b4: 41 04        	addi	s0, s0, 16
802007b6: 41 1a        	addi	s4, s4, -16
802007b8: c1 04        	addi	s1, s1, 16
802007ba: e3 1e 0a fc  	bnez	s4, 0x80200796 <.Lpcrel_hi669+0xba>
802007be: 03 b5 89 01  	ld	a0, 24(s3)
802007c2: 63 68 a9 00  	bltu	s2, a0, 0x802007d2 <.Lpcrel_hi669+0xf6>
802007c6: 2d a0        	j	0x802007f0 <.Lpcrel_hi669+0x114>
802007c8: 01 49        	li	s2, 0
802007ca: 03 b5 89 01  	ld	a0, 24(s3)
802007ce: 63 71 a9 02  	bgeu	s2, a0, 0x802007f0 <.Lpcrel_hi669+0x114>
802007d2: 03 b5 09 01  	ld	a0, 16(s3)
802007d6: 12 09        	slli	s2, s2, 4
802007d8: 2a 99        	add	s2, s2, a0
802007da: a2 66        	ld	a3, 8(sp)
802007dc: 02 65        	ld	a0, 0(sp)
802007de: 83 35 09 00  	ld	a1, 0(s2)
802007e2: 03 36 89 00  	ld	a2, 8(s2)
802007e6: 94 6e        	ld	a3, 24(a3)
802007e8: 82 96        	jalr	a3
802007ea: 19 c1        	beqz	a0, 0x802007f0 <.Lpcrel_hi669+0x114>
802007ec: 05 45        	li	a0, 1
802007ee: 11 a0        	j	0x802007f2 <.Lpcrel_hi669+0x116>
802007f0: 01 45        	li	a0, 0
802007f2: e6 70        	ld	ra, 120(sp)
802007f4: 46 74        	ld	s0, 112(sp)
802007f6: a6 74        	ld	s1, 104(sp)
802007f8: 06 79        	ld	s2, 96(sp)
802007fa: e6 69        	ld	s3, 88(sp)
802007fc: 46 6a        	ld	s4, 80(sp)
802007fe: a6 6a        	ld	s5, 72(sp)
80200800: 06 6b        	ld	s6, 64(sp)
80200802: 09 61        	addi	sp, sp, 128
80200804: 82 80        	ret

0000000080200806 <_ZN4core3fmt9Formatter12pad_integral17h490d38cd5e5b0575E>:
80200806: 59 71        	addi	sp, sp, -112
80200808: 86 f4        	sd	ra, 104(sp)
8020080a: a2 f0        	sd	s0, 96(sp)
8020080c: a6 ec        	sd	s1, 88(sp)
8020080e: ca e8        	sd	s2, 80(sp)
80200810: ce e4        	sd	s3, 72(sp)
80200812: d2 e0        	sd	s4, 64(sp)
80200814: 56 fc        	sd	s5, 56(sp)
80200816: 5a f8        	sd	s6, 48(sp)
80200818: 5e f4        	sd	s7, 40(sp)
8020081a: 62 f0        	sd	s8, 32(sp)
8020081c: 66 ec        	sd	s9, 24(sp)
8020081e: 6a e8        	sd	s10, 16(sp)
80200820: 6e e4        	sd	s11, 8(sp)
80200822: be 89        	mv	s3, a5
80200824: 3a 89        	mv	s2, a4
80200826: 36 8b        	mv	s6, a3
80200828: 32 8a        	mv	s4, a2
8020082a: 2a 8c        	mv	s8, a0
8020082c: b9 c1        	beqz	a1, 0x80200872 <_ZN4core3fmt9Formatter12pad_integral17h490d38cd5e5b0575E+0x6c>
8020082e: 03 64 0c 03  	lwu	s0, 48(s8)
80200832: 93 7c 14 00  	andi	s9, s0, 1
80200836: b7 0a 11 00  	lui	s5, 272
8020083a: 63 84 0c 00  	beqz	s9, 0x80200842 <_ZN4core3fmt9Formatter12pad_integral17h490d38cd5e5b0575E+0x3c>
8020083e: 93 0a b0 02  	li	s5, 43
80200842: ce 9c        	add	s9, s9, s3
80200844: 13 75 44 00  	andi	a0, s0, 4
80200848: 15 cd        	beqz	a0, 0x80200884 <_ZN4core3fmt9Formatter12pad_integral17h490d38cd5e5b0575E+0x7e>
8020084a: 13 05 00 02  	li	a0, 32
8020084e: 63 70 ab 04  	bgeu	s6, a0, 0x8020088e <_ZN4core3fmt9Formatter12pad_integral17h490d38cd5e5b0575E+0x88>
80200852: 01 45        	li	a0, 0
80200854: 63 03 0b 04  	beqz	s6, 0x8020089a <_ZN4core3fmt9Formatter12pad_integral17h490d38cd5e5b0575E+0x94>
80200858: da 85        	mv	a1, s6
8020085a: 52 86        	mv	a2, s4
8020085c: 83 06 06 00  	lb	a3, 0(a2)
80200860: 05 06        	addi	a2, a2, 1
80200862: 93 a6 06 fc  	slti	a3, a3, -64
80200866: 93 c6 16 00  	xori	a3, a3, 1
8020086a: fd 15        	addi	a1, a1, -1
8020086c: 36 95        	add	a0, a0, a3
8020086e: fd f5        	bnez	a1, 0x8020085c <_ZN4core3fmt9Formatter12pad_integral17h490d38cd5e5b0575E+0x56>
80200870: 2d a0        	j	0x8020089a <_ZN4core3fmt9Formatter12pad_integral17h490d38cd5e5b0575E+0x94>
80200872: 03 24 0c 03  	lw	s0, 48(s8)
80200876: 93 8c 19 00  	addi	s9, s3, 1
8020087a: 93 0a d0 02  	li	s5, 45
8020087e: 13 75 44 00  	andi	a0, s0, 4
80200882: 61 f5        	bnez	a0, 0x8020084a <_ZN4core3fmt9Formatter12pad_integral17h490d38cd5e5b0575E+0x44>
80200884: 01 4a        	li	s4, 0
80200886: 03 35 0c 01  	ld	a0, 16(s8)
8020088a: 01 ed        	bnez	a0, 0x802008a2 <_ZN4core3fmt9Formatter12pad_integral17h490d38cd5e5b0575E+0x9c>
8020088c: 25 a8        	j	0x802008c4 <_ZN4core3fmt9Formatter12pad_integral17h490d38cd5e5b0575E+0xbe>
8020088e: 52 85        	mv	a0, s4
80200890: da 85        	mv	a1, s6
80200892: 97 00 00 00  	auipc	ra, 0
80200896: e7 80 20 43  	jalr	1074(ra)
8020089a: aa 9c        	add	s9, s9, a0
8020089c: 03 35 0c 01  	ld	a0, 16(s8)
802008a0: 15 c1        	beqz	a0, 0x802008c4 <_ZN4core3fmt9Formatter12pad_integral17h490d38cd5e5b0575E+0xbe>
802008a2: 03 3d 8c 01  	ld	s10, 24(s8)
802008a6: 63 ff ac 01  	bgeu	s9, s10, 0x802008c4 <_ZN4core3fmt9Formatter12pad_integral17h490d38cd5e5b0575E+0xbe>
802008aa: 21 88        	andi	s0, s0, 8
802008ac: 35 ec        	bnez	s0, 0x80200928 <_ZN4core3fmt9Formatter12pad_integral17h490d38cd5e5b0575E+0x122>
802008ae: 83 45 8c 03  	lbu	a1, 56(s8)
802008b2: 05 46        	li	a2, 1
802008b4: 33 05 9d 41  	sub	a0, s10, s9
802008b8: 63 4f b6 0a  	blt	a2, a1, 0x80200976 <_ZN4core3fmt9Formatter12pad_integral17h490d38cd5e5b0575E+0x170>
802008bc: f1 e5        	bnez	a1, 0x80200988 <_ZN4core3fmt9Formatter12pad_integral17h490d38cd5e5b0575E+0x182>
802008be: 2a 8d        	mv	s10, a0
802008c0: 2e 85        	mv	a0, a1
802008c2: e1 a0        	j	0x8020098a <_ZN4core3fmt9Formatter12pad_integral17h490d38cd5e5b0575E+0x184>
802008c4: 03 34 0c 00  	ld	s0, 0(s8)
802008c8: 83 34 8c 00  	ld	s1, 8(s8)
802008cc: 22 85        	mv	a0, s0
802008ce: a6 85        	mv	a1, s1
802008d0: 56 86        	mv	a2, s5
802008d2: d2 86        	mv	a3, s4
802008d4: 5a 87        	mv	a4, s6
802008d6: 97 00 00 00  	auipc	ra, 0
802008da: e7 80 80 14  	jalr	328(ra)
802008de: 85 4b        	li	s7, 1
802008e0: 0d c1        	beqz	a0, 0x80200902 <_ZN4core3fmt9Formatter12pad_integral17h490d38cd5e5b0575E+0xfc>
802008e2: 5e 85        	mv	a0, s7
802008e4: a6 70        	ld	ra, 104(sp)
802008e6: 06 74        	ld	s0, 96(sp)
802008e8: e6 64        	ld	s1, 88(sp)
802008ea: 46 69        	ld	s2, 80(sp)
802008ec: a6 69        	ld	s3, 72(sp)
802008ee: 06 6a        	ld	s4, 64(sp)
802008f0: e2 7a        	ld	s5, 56(sp)
802008f2: 42 7b        	ld	s6, 48(sp)
802008f4: a2 7b        	ld	s7, 40(sp)
802008f6: 02 7c        	ld	s8, 32(sp)
802008f8: e2 6c        	ld	s9, 24(sp)
802008fa: 42 6d        	ld	s10, 16(sp)
802008fc: a2 6d        	ld	s11, 8(sp)
802008fe: 65 61        	addi	sp, sp, 112
80200900: 82 80        	ret
80200902: 9c 6c        	ld	a5, 24(s1)
80200904: 22 85        	mv	a0, s0
80200906: ca 85        	mv	a1, s2
80200908: 4e 86        	mv	a2, s3
8020090a: a6 70        	ld	ra, 104(sp)
8020090c: 06 74        	ld	s0, 96(sp)
8020090e: e6 64        	ld	s1, 88(sp)
80200910: 46 69        	ld	s2, 80(sp)
80200912: a6 69        	ld	s3, 72(sp)
80200914: 06 6a        	ld	s4, 64(sp)
80200916: e2 7a        	ld	s5, 56(sp)
80200918: 42 7b        	ld	s6, 48(sp)
8020091a: a2 7b        	ld	s7, 40(sp)
8020091c: 02 7c        	ld	s8, 32(sp)
8020091e: e2 6c        	ld	s9, 24(sp)
80200920: 42 6d        	ld	s10, 16(sp)
80200922: a2 6d        	ld	s11, 8(sp)
80200924: 65 61        	addi	sp, sp, 112
80200926: 82 87        	jr	a5
80200928: 03 24 4c 03  	lw	s0, 52(s8)
8020092c: 13 05 00 03  	li	a0, 48
80200930: 83 45 8c 03  	lbu	a1, 56(s8)
80200934: 2e e0        	sd	a1, 0(sp)
80200936: 83 3d 0c 00  	ld	s11, 0(s8)
8020093a: 83 34 8c 00  	ld	s1, 8(s8)
8020093e: 23 2a ac 02  	sw	a0, 52(s8)
80200942: 85 4b        	li	s7, 1
80200944: 23 0c 7c 03  	sb	s7, 56(s8)
80200948: 6e 85        	mv	a0, s11
8020094a: a6 85        	mv	a1, s1
8020094c: 56 86        	mv	a2, s5
8020094e: d2 86        	mv	a3, s4
80200950: 5a 87        	mv	a4, s6
80200952: 97 00 00 00  	auipc	ra, 0
80200956: e7 80 c0 0c  	jalr	204(ra)
8020095a: 41 f5        	bnez	a0, 0x802008e2 <_ZN4core3fmt9Formatter12pad_integral17h490d38cd5e5b0575E+0xdc>
8020095c: 22 8a        	mv	s4, s0
8020095e: 33 04 9d 41  	sub	s0, s10, s9
80200962: 05 04        	addi	s0, s0, 1
80200964: 7d 14        	addi	s0, s0, -1
80200966: 51 c8        	beqz	s0, 0x802009fa <_ZN4core3fmt9Formatter12pad_integral17h490d38cd5e5b0575E+0x1f4>
80200968: 90 70        	ld	a2, 32(s1)
8020096a: 93 05 00 03  	li	a1, 48
8020096e: 6e 85        	mv	a0, s11
80200970: 02 96        	jalr	a2
80200972: 6d d9        	beqz	a0, 0x80200964 <_ZN4core3fmt9Formatter12pad_integral17h490d38cd5e5b0575E+0x15e>
80200974: bd b7        	j	0x802008e2 <_ZN4core3fmt9Formatter12pad_integral17h490d38cd5e5b0575E+0xdc>
80200976: 09 46        	li	a2, 2
80200978: 63 98 c5 00  	bne	a1, a2, 0x80200988 <_ZN4core3fmt9Formatter12pad_integral17h490d38cd5e5b0575E+0x182>
8020097c: 93 05 15 00  	addi	a1, a0, 1
80200980: 05 81        	srli	a0, a0, 1
80200982: 13 dd 15 00  	srli	s10, a1, 1
80200986: 11 a0        	j	0x8020098a <_ZN4core3fmt9Formatter12pad_integral17h490d38cd5e5b0575E+0x184>
80200988: 01 4d        	li	s10, 0
8020098a: 83 3c 0c 00  	ld	s9, 0(s8)
8020098e: 83 3d 8c 00  	ld	s11, 8(s8)
80200992: 83 24 4c 03  	lw	s1, 52(s8)
80200996: 13 04 15 00  	addi	s0, a0, 1
8020099a: 7d 14        	addi	s0, s0, -1
8020099c: 09 c8        	beqz	s0, 0x802009ae <_ZN4core3fmt9Formatter12pad_integral17h490d38cd5e5b0575E+0x1a8>
8020099e: 03 b6 0d 02  	ld	a2, 32(s11)
802009a2: 66 85        	mv	a0, s9
802009a4: a6 85        	mv	a1, s1
802009a6: 02 96        	jalr	a2
802009a8: 6d d9        	beqz	a0, 0x8020099a <_ZN4core3fmt9Formatter12pad_integral17h490d38cd5e5b0575E+0x194>
802009aa: 85 4b        	li	s7, 1
802009ac: 1d bf        	j	0x802008e2 <_ZN4core3fmt9Formatter12pad_integral17h490d38cd5e5b0575E+0xdc>
802009ae: 37 05 11 00  	lui	a0, 272
802009b2: 85 4b        	li	s7, 1
802009b4: e3 87 a4 f2  	beq	s1, a0, 0x802008e2 <_ZN4core3fmt9Formatter12pad_integral17h490d38cd5e5b0575E+0xdc>
802009b8: 66 85        	mv	a0, s9
802009ba: ee 85        	mv	a1, s11
802009bc: 56 86        	mv	a2, s5
802009be: d2 86        	mv	a3, s4
802009c0: 5a 87        	mv	a4, s6
802009c2: 97 00 00 00  	auipc	ra, 0
802009c6: e7 80 c0 05  	jalr	92(ra)
802009ca: 01 fd        	bnez	a0, 0x802008e2 <_ZN4core3fmt9Formatter12pad_integral17h490d38cd5e5b0575E+0xdc>
802009cc: 83 b6 8d 01  	ld	a3, 24(s11)
802009d0: 66 85        	mv	a0, s9
802009d2: ca 85        	mv	a1, s2
802009d4: 4e 86        	mv	a2, s3
802009d6: 82 96        	jalr	a3
802009d8: 09 f5        	bnez	a0, 0x802008e2 <_ZN4core3fmt9Formatter12pad_integral17h490d38cd5e5b0575E+0xdc>
802009da: b3 09 a0 41  	neg	s3, s10
802009de: 7d 5a        	li	s4, -1
802009e0: 7d 59        	li	s2, -1
802009e2: 33 85 29 01  	add	a0, s3, s2
802009e6: 63 08 45 03  	beq	a0, s4, 0x80200a16 <_ZN4core3fmt9Formatter12pad_integral17h490d38cd5e5b0575E+0x210>
802009ea: 03 b6 0d 02  	ld	a2, 32(s11)
802009ee: 66 85        	mv	a0, s9
802009f0: a6 85        	mv	a1, s1
802009f2: 02 96        	jalr	a2
802009f4: 05 09        	addi	s2, s2, 1
802009f6: 75 d5        	beqz	a0, 0x802009e2 <_ZN4core3fmt9Formatter12pad_integral17h490d38cd5e5b0575E+0x1dc>
802009f8: 05 a0        	j	0x80200a18 <_ZN4core3fmt9Formatter12pad_integral17h490d38cd5e5b0575E+0x212>
802009fa: 94 6c        	ld	a3, 24(s1)
802009fc: 6e 85        	mv	a0, s11
802009fe: ca 85        	mv	a1, s2
80200a00: 4e 86        	mv	a2, s3
80200a02: 82 96        	jalr	a3
80200a04: e3 1f 05 ec  	bnez	a0, 0x802008e2 <_ZN4core3fmt9Formatter12pad_integral17h490d38cd5e5b0575E+0xdc>
80200a08: 81 4b        	li	s7, 0
80200a0a: 23 2a 4c 03  	sw	s4, 52(s8)
80200a0e: 02 65        	ld	a0, 0(sp)
80200a10: 23 0c ac 02  	sb	a0, 56(s8)
80200a14: f9 b5        	j	0x802008e2 <_ZN4core3fmt9Formatter12pad_integral17h490d38cd5e5b0575E+0xdc>
80200a16: 6a 89        	mv	s2, s10
80200a18: b3 3b a9 01  	sltu	s7, s2, s10
80200a1c: d9 b5        	j	0x802008e2 <_ZN4core3fmt9Formatter12pad_integral17h490d38cd5e5b0575E+0xdc>

0000000080200a1e <_ZN4core3fmt9Formatter12pad_integral12write_prefix17h127c66ce5708e67eE>:
80200a1e: 79 71        	addi	sp, sp, -48
80200a20: 06 f4        	sd	ra, 40(sp)
80200a22: 22 f0        	sd	s0, 32(sp)
80200a24: 26 ec        	sd	s1, 24(sp)
80200a26: 4a e8        	sd	s2, 16(sp)
80200a28: 4e e4        	sd	s3, 8(sp)
80200a2a: 9b 07 06 00  	sext.w	a5, a2
80200a2e: 37 08 11 00  	lui	a6, 272
80200a32: 3a 89        	mv	s2, a4
80200a34: b6 84        	mv	s1, a3
80200a36: 2e 84        	mv	s0, a1
80200a38: aa 89        	mv	s3, a0
80200a3a: 63 89 07 01  	beq	a5, a6, 0x80200a4c <_ZN4core3fmt9Formatter12pad_integral12write_prefix17h127c66ce5708e67eE+0x2e>
80200a3e: 14 70        	ld	a3, 32(s0)
80200a40: 4e 85        	mv	a0, s3
80200a42: b2 85        	mv	a1, a2
80200a44: 82 96        	jalr	a3
80200a46: aa 85        	mv	a1, a0
80200a48: 05 45        	li	a0, 1
80200a4a: 91 ed        	bnez	a1, 0x80200a66 <_ZN4core3fmt9Formatter12pad_integral12write_prefix17h127c66ce5708e67eE+0x48>
80200a4c: 81 cc        	beqz	s1, 0x80200a64 <_ZN4core3fmt9Formatter12pad_integral12write_prefix17h127c66ce5708e67eE+0x46>
80200a4e: 1c 6c        	ld	a5, 24(s0)
80200a50: 4e 85        	mv	a0, s3
80200a52: a6 85        	mv	a1, s1
80200a54: 4a 86        	mv	a2, s2
80200a56: a2 70        	ld	ra, 40(sp)
80200a58: 02 74        	ld	s0, 32(sp)
80200a5a: e2 64        	ld	s1, 24(sp)
80200a5c: 42 69        	ld	s2, 16(sp)
80200a5e: a2 69        	ld	s3, 8(sp)
80200a60: 45 61        	addi	sp, sp, 48
80200a62: 82 87        	jr	a5
80200a64: 01 45        	li	a0, 0
80200a66: a2 70        	ld	ra, 40(sp)
80200a68: 02 74        	ld	s0, 32(sp)
80200a6a: e2 64        	ld	s1, 24(sp)
80200a6c: 42 69        	ld	s2, 16(sp)
80200a6e: a2 69        	ld	s3, 8(sp)
80200a70: 45 61        	addi	sp, sp, 48
80200a72: 82 80        	ret

0000000080200a74 <_ZN4core3fmt9Formatter3pad17hacc2e451a8e8228aE>:
80200a74: 5d 71        	addi	sp, sp, -80
80200a76: 86 e4        	sd	ra, 72(sp)
80200a78: a2 e0        	sd	s0, 64(sp)
80200a7a: 26 fc        	sd	s1, 56(sp)
80200a7c: 4a f8        	sd	s2, 48(sp)
80200a7e: 4e f4        	sd	s3, 40(sp)
80200a80: 52 f0        	sd	s4, 32(sp)
80200a82: 56 ec        	sd	s5, 24(sp)
80200a84: 5a e8        	sd	s6, 16(sp)
80200a86: 5e e4        	sd	s7, 8(sp)
80200a88: 2a 8a        	mv	s4, a0
80200a8a: 83 32 05 01  	ld	t0, 16(a0)
80200a8e: 08 71        	ld	a0, 32(a0)
80200a90: b3 e6 a2 00  	or	a3, t0, a0
80200a94: b2 89        	mv	s3, a2
80200a96: 2e 89        	mv	s2, a1
80200a98: 63 84 06 16  	beqz	a3, 0x80200c00 <_ZN4core3fmt9Formatter3pad17hacc2e451a8e8228aE+0x18c>
80200a9c: 63 07 05 10  	beqz	a0, 0x80200baa <_ZN4core3fmt9Formatter3pad17hacc2e451a8e8228aE+0x136>
80200aa0: 03 37 8a 02  	ld	a4, 40(s4)
80200aa4: 01 45        	li	a0, 0
80200aa6: b3 06 39 01  	add	a3, s2, s3
80200aaa: 05 07        	addi	a4, a4, 1
80200aac: 37 03 11 00  	lui	t1, 272
80200ab0: 93 08 f0 0d  	li	a7, 223
80200ab4: 13 08 00 0f  	li	a6, 240
80200ab8: 4a 86        	mv	a2, s2
80200aba: 01 a8        	j	0x80200aca <_ZN4core3fmt9Formatter3pad17hacc2e451a8e8228aE+0x56>
80200abc: 93 05 16 00  	addi	a1, a2, 1
80200ac0: 11 8d        	sub	a0, a0, a2
80200ac2: 2e 95        	add	a0, a0, a1
80200ac4: 2e 86        	mv	a2, a1
80200ac6: 63 02 64 0e  	beq	s0, t1, 0x80200baa <_ZN4core3fmt9Formatter3pad17hacc2e451a8e8228aE+0x136>
80200aca: 7d 17        	addi	a4, a4, -1
80200acc: 25 c7        	beqz	a4, 0x80200b34 <_ZN4core3fmt9Formatter3pad17hacc2e451a8e8228aE+0xc0>
80200ace: 63 0e d6 0c  	beq	a2, a3, 0x80200baa <_ZN4core3fmt9Formatter3pad17hacc2e451a8e8228aE+0x136>
80200ad2: 83 05 06 00  	lb	a1, 0(a2)
80200ad6: 13 f4 f5 0f  	andi	s0, a1, 255
80200ada: e3 d1 05 fe  	bgez	a1, 0x80200abc <_ZN4core3fmt9Formatter3pad17hacc2e451a8e8228aE+0x48>
80200ade: 83 45 16 00  	lbu	a1, 1(a2)
80200ae2: 93 74 f4 01  	andi	s1, s0, 31
80200ae6: 93 f7 f5 03  	andi	a5, a1, 63
80200aea: 63 f9 88 02  	bgeu	a7, s0, 0x80200b1c <_ZN4core3fmt9Formatter3pad17hacc2e451a8e8228aE+0xa8>
80200aee: 83 45 26 00  	lbu	a1, 2(a2)
80200af2: 9a 07        	slli	a5, a5, 6
80200af4: 93 f5 f5 03  	andi	a1, a1, 63
80200af8: cd 8f        	or	a5, a5, a1
80200afa: 63 67 04 03  	bltu	s0, a6, 0x80200b28 <_ZN4core3fmt9Formatter3pad17hacc2e451a8e8228aE+0xb4>
80200afe: 83 45 36 00  	lbu	a1, 3(a2)
80200b02: f6 14        	slli	s1, s1, 61
80200b04: ad 90        	srli	s1, s1, 43
80200b06: 9a 07        	slli	a5, a5, 6
80200b08: 93 f5 f5 03  	andi	a1, a1, 63
80200b0c: dd 8d        	or	a1, a1, a5
80200b0e: 33 e4 95 00  	or	s0, a1, s1
80200b12: 63 0c 64 08  	beq	s0, t1, 0x80200baa <_ZN4core3fmt9Formatter3pad17hacc2e451a8e8228aE+0x136>
80200b16: 93 05 46 00  	addi	a1, a2, 4
80200b1a: 5d b7        	j	0x80200ac0 <_ZN4core3fmt9Formatter3pad17hacc2e451a8e8228aE+0x4c>
80200b1c: 93 05 26 00  	addi	a1, a2, 2
80200b20: 13 94 64 00  	slli	s0, s1, 6
80200b24: 5d 8c        	or	s0, s0, a5
80200b26: 69 bf        	j	0x80200ac0 <_ZN4core3fmt9Formatter3pad17hacc2e451a8e8228aE+0x4c>
80200b28: 93 05 36 00  	addi	a1, a2, 3
80200b2c: 13 94 c4 00  	slli	s0, s1, 12
80200b30: 5d 8c        	or	s0, s0, a5
80200b32: 79 b7        	j	0x80200ac0 <_ZN4core3fmt9Formatter3pad17hacc2e451a8e8228aE+0x4c>
80200b34: 63 0b d6 06  	beq	a2, a3, 0x80200baa <_ZN4core3fmt9Formatter3pad17hacc2e451a8e8228aE+0x136>
80200b38: 83 05 06 00  	lb	a1, 0(a2)
80200b3c: 63 d3 05 04  	bgez	a1, 0x80200b82 <_ZN4core3fmt9Formatter3pad17hacc2e451a8e8228aE+0x10e>
80200b40: 93 f5 f5 0f  	andi	a1, a1, 255
80200b44: 93 06 00 0e  	li	a3, 224
80200b48: 63 ed d5 02  	bltu	a1, a3, 0x80200b82 <_ZN4core3fmt9Formatter3pad17hacc2e451a8e8228aE+0x10e>
80200b4c: 93 06 00 0f  	li	a3, 240
80200b50: 63 e9 d5 02  	bltu	a1, a3, 0x80200b82 <_ZN4core3fmt9Formatter3pad17hacc2e451a8e8228aE+0x10e>
80200b54: 83 46 16 00  	lbu	a3, 1(a2)
80200b58: 03 47 26 00  	lbu	a4, 2(a2)
80200b5c: 93 f6 f6 03  	andi	a3, a3, 63
80200b60: 13 77 f7 03  	andi	a4, a4, 63
80200b64: 03 46 36 00  	lbu	a2, 3(a2)
80200b68: f6 15        	slli	a1, a1, 61
80200b6a: ad 91        	srli	a1, a1, 43
80200b6c: b2 06        	slli	a3, a3, 12
80200b6e: 1a 07        	slli	a4, a4, 6
80200b70: d9 8e        	or	a3, a3, a4
80200b72: 13 76 f6 03  	andi	a2, a2, 63
80200b76: 55 8e        	or	a2, a2, a3
80200b78: d1 8d        	or	a1, a1, a2
80200b7a: 37 06 11 00  	lui	a2, 272
80200b7e: 63 86 c5 02  	beq	a1, a2, 0x80200baa <_ZN4core3fmt9Formatter3pad17hacc2e451a8e8228aE+0x136>
80200b82: 05 c1        	beqz	a0, 0x80200ba2 <_ZN4core3fmt9Formatter3pad17hacc2e451a8e8228aE+0x12e>
80200b84: 63 7d 35 01  	bgeu	a0, s3, 0x80200b9e <_ZN4core3fmt9Formatter3pad17hacc2e451a8e8228aE+0x12a>
80200b88: b3 05 a9 00  	add	a1, s2, a0
80200b8c: 83 85 05 00  	lb	a1, 0(a1)
80200b90: 13 06 00 fc  	li	a2, -64
80200b94: 63 d7 c5 00  	bge	a1, a2, 0x80200ba2 <_ZN4core3fmt9Formatter3pad17hacc2e451a8e8228aE+0x12e>
80200b98: 81 45        	li	a1, 0
80200b9a: 91 e5        	bnez	a1, 0x80200ba6 <_ZN4core3fmt9Formatter3pad17hacc2e451a8e8228aE+0x132>
80200b9c: 39 a0        	j	0x80200baa <_ZN4core3fmt9Formatter3pad17hacc2e451a8e8228aE+0x136>
80200b9e: e3 1d 35 ff  	bne	a0, s3, 0x80200b98 <_ZN4core3fmt9Formatter3pad17hacc2e451a8e8228aE+0x124>
80200ba2: ca 85        	mv	a1, s2
80200ba4: 99 c1        	beqz	a1, 0x80200baa <_ZN4core3fmt9Formatter3pad17hacc2e451a8e8228aE+0x136>
80200ba6: aa 89        	mv	s3, a0
80200ba8: 2e 89        	mv	s2, a1
80200baa: 63 8b 02 04  	beqz	t0, 0x80200c00 <_ZN4core3fmt9Formatter3pad17hacc2e451a8e8228aE+0x18c>
80200bae: 03 34 8a 01  	ld	s0, 24(s4)
80200bb2: 13 05 00 02  	li	a0, 32
80200bb6: 63 fd a9 02  	bgeu	s3, a0, 0x80200bf0 <_ZN4core3fmt9Formatter3pad17hacc2e451a8e8228aE+0x17c>
80200bba: 01 45        	li	a0, 0
80200bbc: 63 8e 09 00  	beqz	s3, 0x80200bd8 <_ZN4core3fmt9Formatter3pad17hacc2e451a8e8228aE+0x164>
80200bc0: ce 85        	mv	a1, s3
80200bc2: 4a 86        	mv	a2, s2
80200bc4: 83 06 06 00  	lb	a3, 0(a2)
80200bc8: 05 06        	addi	a2, a2, 1
80200bca: 93 a6 06 fc  	slti	a3, a3, -64
80200bce: 93 c6 16 00  	xori	a3, a3, 1
80200bd2: fd 15        	addi	a1, a1, -1
80200bd4: 36 95        	add	a0, a0, a3
80200bd6: fd f5        	bnez	a1, 0x80200bc4 <_ZN4core3fmt9Formatter3pad17hacc2e451a8e8228aE+0x150>
80200bd8: 63 74 85 02  	bgeu	a0, s0, 0x80200c00 <_ZN4core3fmt9Formatter3pad17hacc2e451a8e8228aE+0x18c>
80200bdc: 83 45 8a 03  	lbu	a1, 56(s4)
80200be0: 05 46        	li	a2, 1
80200be2: 33 05 a4 40  	sub	a0, s0, a0
80200be6: 63 4f b6 02  	blt	a2, a1, 0x80200c24 <_ZN4core3fmt9Formatter3pad17hacc2e451a8e8228aE+0x1b0>
80200bea: b1 c5        	beqz	a1, 0x80200c36 <_ZN4core3fmt9Formatter3pad17hacc2e451a8e8228aE+0x1c2>
80200bec: 81 4a        	li	s5, 0
80200bee: b1 a0        	j	0x80200c3a <_ZN4core3fmt9Formatter3pad17hacc2e451a8e8228aE+0x1c6>
80200bf0: 4a 85        	mv	a0, s2
80200bf2: ce 85        	mv	a1, s3
80200bf4: 97 00 00 00  	auipc	ra, 0
80200bf8: e7 80 00 0d  	jalr	208(ra)
80200bfc: e3 60 85 fe  	bltu	a0, s0, 0x80200bdc <_ZN4core3fmt9Formatter3pad17hacc2e451a8e8228aE+0x168>
80200c00: 83 35 8a 00  	ld	a1, 8(s4)
80200c04: 03 35 0a 00  	ld	a0, 0(s4)
80200c08: 9c 6d        	ld	a5, 24(a1)
80200c0a: ca 85        	mv	a1, s2
80200c0c: 4e 86        	mv	a2, s3
80200c0e: a6 60        	ld	ra, 72(sp)
80200c10: 06 64        	ld	s0, 64(sp)
80200c12: e2 74        	ld	s1, 56(sp)
80200c14: 42 79        	ld	s2, 48(sp)
80200c16: a2 79        	ld	s3, 40(sp)
80200c18: 02 7a        	ld	s4, 32(sp)
80200c1a: e2 6a        	ld	s5, 24(sp)
80200c1c: 42 6b        	ld	s6, 16(sp)
80200c1e: a2 6b        	ld	s7, 8(sp)
80200c20: 61 61        	addi	sp, sp, 80
80200c22: 82 87        	jr	a5
80200c24: 09 46        	li	a2, 2
80200c26: 63 98 c5 00  	bne	a1, a2, 0x80200c36 <_ZN4core3fmt9Formatter3pad17hacc2e451a8e8228aE+0x1c2>
80200c2a: 93 05 15 00  	addi	a1, a0, 1
80200c2e: 05 81        	srli	a0, a0, 1
80200c30: 93 da 15 00  	srli	s5, a1, 1
80200c34: 19 a0        	j	0x80200c3a <_ZN4core3fmt9Formatter3pad17hacc2e451a8e8228aE+0x1c6>
80200c36: aa 8a        	mv	s5, a0
80200c38: 01 45        	li	a0, 0
80200c3a: 03 3b 0a 00  	ld	s6, 0(s4)
80200c3e: 83 3b 8a 00  	ld	s7, 8(s4)
80200c42: 83 24 4a 03  	lw	s1, 52(s4)
80200c46: 13 04 15 00  	addi	s0, a0, 1
80200c4a: 7d 14        	addi	s0, s0, -1
80200c4c: 09 c8        	beqz	s0, 0x80200c5e <_ZN4core3fmt9Formatter3pad17hacc2e451a8e8228aE+0x1ea>
80200c4e: 03 b6 0b 02  	ld	a2, 32(s7)
80200c52: 5a 85        	mv	a0, s6
80200c54: a6 85        	mv	a1, s1
80200c56: 02 96        	jalr	a2
80200c58: 6d d9        	beqz	a0, 0x80200c4a <_ZN4core3fmt9Formatter3pad17hacc2e451a8e8228aE+0x1d6>
80200c5a: 05 4a        	li	s4, 1
80200c5c: 81 a0        	j	0x80200c9c <_ZN4core3fmt9Formatter3pad17hacc2e451a8e8228aE+0x228>
80200c5e: 37 05 11 00  	lui	a0, 272
80200c62: 05 4a        	li	s4, 1
80200c64: 63 8c a4 02  	beq	s1, a0, 0x80200c9c <_ZN4core3fmt9Formatter3pad17hacc2e451a8e8228aE+0x228>
80200c68: 83 b6 8b 01  	ld	a3, 24(s7)
80200c6c: 5a 85        	mv	a0, s6
80200c6e: ca 85        	mv	a1, s2
80200c70: 4e 86        	mv	a2, s3
80200c72: 82 96        	jalr	a3
80200c74: 05 e5        	bnez	a0, 0x80200c9c <_ZN4core3fmt9Formatter3pad17hacc2e451a8e8228aE+0x228>
80200c76: 33 09 50 41  	neg	s2, s5
80200c7a: fd 59        	li	s3, -1
80200c7c: 7d 54        	li	s0, -1
80200c7e: 33 05 89 00  	add	a0, s2, s0
80200c82: 63 0a 35 01  	beq	a0, s3, 0x80200c96 <_ZN4core3fmt9Formatter3pad17hacc2e451a8e8228aE+0x222>
80200c86: 03 b6 0b 02  	ld	a2, 32(s7)
80200c8a: 5a 85        	mv	a0, s6
80200c8c: a6 85        	mv	a1, s1
80200c8e: 02 96        	jalr	a2
80200c90: 05 04        	addi	s0, s0, 1
80200c92: 75 d5        	beqz	a0, 0x80200c7e <_ZN4core3fmt9Formatter3pad17hacc2e451a8e8228aE+0x20a>
80200c94: 11 a0        	j	0x80200c98 <_ZN4core3fmt9Formatter3pad17hacc2e451a8e8228aE+0x224>
80200c96: 56 84        	mv	s0, s5
80200c98: 33 3a 54 01  	sltu	s4, s0, s5
80200c9c: 52 85        	mv	a0, s4
80200c9e: a6 60        	ld	ra, 72(sp)
80200ca0: 06 64        	ld	s0, 64(sp)
80200ca2: e2 74        	ld	s1, 56(sp)
80200ca4: 42 79        	ld	s2, 48(sp)
80200ca6: a2 79        	ld	s3, 40(sp)
80200ca8: 02 7a        	ld	s4, 32(sp)
80200caa: e2 6a        	ld	s5, 24(sp)
80200cac: 42 6b        	ld	s6, 16(sp)
80200cae: a2 6b        	ld	s7, 8(sp)
80200cb0: 61 61        	addi	sp, sp, 80
80200cb2: 82 80        	ret

0000000080200cb4 <_ZN42_$LT$str$u20$as$u20$core..fmt..Display$GT$3fmt17h21919a82d5074b44E>:
80200cb4: ae 86        	mv	a3, a1
80200cb6: aa 85        	mv	a1, a0
80200cb8: 32 85        	mv	a0, a2
80200cba: 36 86        	mv	a2, a3
80200cbc: 17 03 00 00  	auipc	t1, 0
80200cc0: 67 00 83 db  	jr	-584(t1)

0000000080200cc4 <_ZN4core3str5count14do_count_chars17h3656356bff18893cE>:
80200cc4: 2a 86        	mv	a2, a0
80200cc6: 13 07 75 00  	addi	a4, a0, 7
80200cca: 61 9b        	andi	a4, a4, -8
80200ccc: b3 02 a7 40  	sub	t0, a4, a0
80200cd0: 63 ec 55 00  	bltu	a1, t0, 0x80200ce8 <_ZN4core3str5count14do_count_chars17h3656356bff18893cE+0x24>
80200cd4: 33 88 55 40  	sub	a6, a1, t0
80200cd8: 93 36 88 00  	sltiu	a3, a6, 8
80200cdc: 93 b7 92 00  	sltiu	a5, t0, 9
80200ce0: 93 c7 17 00  	xori	a5, a5, 1
80200ce4: dd 8e        	or	a3, a3, a5
80200ce6: 91 ce        	beqz	a3, 0x80200d02 <_ZN4core3str5count14do_count_chars17h3656356bff18893cE+0x3e>
80200ce8: 01 45        	li	a0, 0
80200cea: 99 c9        	beqz	a1, 0x80200d00 <_ZN4core3str5count14do_count_chars17h3656356bff18893cE+0x3c>
80200cec: 83 06 06 00  	lb	a3, 0(a2)
80200cf0: 05 06        	addi	a2, a2, 1
80200cf2: 93 a6 06 fc  	slti	a3, a3, -64
80200cf6: 93 c6 16 00  	xori	a3, a3, 1
80200cfa: fd 15        	addi	a1, a1, -1
80200cfc: 36 95        	add	a0, a0, a3
80200cfe: fd f5        	bnez	a1, 0x80200cec <_ZN4core3str5count14do_count_chars17h3656356bff18893cE+0x28>
80200d00: 82 80        	ret
80200d02: 93 76 78 00  	andi	a3, a6, 7
80200d06: 81 45        	li	a1, 0
80200d08: 63 0f c7 00  	beq	a4, a2, 0x80200d26 <_ZN4core3str5count14do_count_chars17h3656356bff18893cE+0x62>
80200d0c: 33 07 e6 40  	sub	a4, a2, a4
80200d10: b2 87        	mv	a5, a2
80200d12: 03 85 07 00  	lb	a0, 0(a5)
80200d16: 85 07        	addi	a5, a5, 1
80200d18: 13 25 05 fc  	slti	a0, a0, -64
80200d1c: 13 45 15 00  	xori	a0, a0, 1
80200d20: 05 07        	addi	a4, a4, 1
80200d22: aa 95        	add	a1, a1, a0
80200d24: 7d f7        	bnez	a4, 0x80200d12 <_ZN4core3str5count14do_count_chars17h3656356bff18893cE+0x4e>
80200d26: b2 92        	add	t0, t0, a2
80200d28: 01 46        	li	a2, 0
80200d2a: 91 ce        	beqz	a3, 0x80200d46 <_ZN4core3str5count14do_count_chars17h3656356bff18893cE+0x82>
80200d2c: 13 77 88 ff  	andi	a4, a6, -8
80200d30: 16 97        	add	a4, a4, t0
80200d32: 03 05 07 00  	lb	a0, 0(a4)
80200d36: 05 07        	addi	a4, a4, 1
80200d38: 13 25 05 fc  	slti	a0, a0, -64
80200d3c: 13 45 15 00  	xori	a0, a0, 1
80200d40: fd 16        	addi	a3, a3, -1
80200d42: 2a 96        	add	a2, a2, a0
80200d44: fd f6        	bnez	a3, 0x80200d32 <_ZN4core3str5count14do_count_chars17h3656356bff18893cE+0x6e>
80200d46: 13 57 38 00  	srli	a4, a6, 3

0000000080200d4a <.Lpcrel_hi763>:
80200d4a: 17 15 00 00  	auipc	a0, 1
80200d4e: 03 3f e5 4e  	ld	t5, 1262(a0)

0000000080200d52 <.Lpcrel_hi764>:
80200d52: 17 15 00 00  	auipc	a0, 1
80200d56: 83 38 e5 4e  	ld	a7, 1262(a0)
80200d5a: 37 15 00 10  	lui	a0, 65537
80200d5e: 12 05        	slli	a0, a0, 4
80200d60: 05 05        	addi	a0, a0, 1
80200d62: 42 05        	slli	a0, a0, 16
80200d64: 13 08 15 00  	addi	a6, a0, 1
80200d68: 33 05 b6 00  	add	a0, a2, a1
80200d6c: 1d a0        	j	0x80200d92 <.Lpcrel_hi764+0x40>
80200d6e: 93 12 3e 00  	slli	t0, t3, 3
80200d72: 9a 92        	add	t0, t0, t1
80200d74: 33 87 c3 41  	sub	a4, t2, t3
80200d78: 13 76 3e 00  	andi	a2, t3, 3
80200d7c: b3 f6 15 01  	and	a3, a1, a7
80200d80: a1 81        	srli	a1, a1, 8
80200d82: b3 f5 15 01  	and	a1, a1, a7
80200d86: b6 95        	add	a1, a1, a3
80200d88: b3 85 05 03  	mul	a1, a1, a6
80200d8c: c1 91        	srli	a1, a1, 48
80200d8e: 2e 95        	add	a0, a0, a1
80200d90: 35 ee        	bnez	a2, 0x80200e0c <.Lpcrel_hi764+0xba>
80200d92: 3d d7        	beqz	a4, 0x80200d00 <_ZN4core3str5count14do_count_chars17h3656356bff18893cE+0x3c>
80200d94: ba 83        	mv	t2, a4
80200d96: 16 83        	mv	t1, t0
80200d98: 93 05 00 0c  	li	a1, 192
80200d9c: 3a 8e        	mv	t3, a4
80200d9e: 63 64 b7 00  	bltu	a4, a1, 0x80200da6 <.Lpcrel_hi764+0x54>
80200da2: 13 0e 00 0c  	li	t3, 192
80200da6: 93 75 ce 0f  	andi	a1, t3, 252
80200daa: 93 97 35 00  	slli	a5, a1, 3
80200dae: b3 0e f3 00  	add	t4, t1, a5
80200db2: d5 dd        	beqz	a1, 0x80200d6e <.Lpcrel_hi764+0x1c>
80200db4: 81 45        	li	a1, 0
80200db6: 1a 86        	mv	a2, t1
80200db8: 5d da        	beqz	a2, 0x80200d6e <.Lpcrel_hi764+0x1c>
80200dba: 18 62        	ld	a4, 0(a2)
80200dbc: 93 47 f7 ff  	not	a5, a4
80200dc0: 9d 83        	srli	a5, a5, 7
80200dc2: 19 83        	srli	a4, a4, 6
80200dc4: 14 66        	ld	a3, 8(a2)
80200dc6: 5d 8f        	or	a4, a4, a5
80200dc8: 33 77 e7 01  	and	a4, a4, t5
80200dcc: ba 95        	add	a1, a1, a4
80200dce: 13 c7 f6 ff  	not	a4, a3
80200dd2: 1d 83        	srli	a4, a4, 7
80200dd4: 1c 6a        	ld	a5, 16(a2)
80200dd6: 99 82        	srli	a3, a3, 6
80200dd8: d9 8e        	or	a3, a3, a4
80200dda: b3 f6 e6 01  	and	a3, a3, t5
80200dde: 13 c7 f7 ff  	not	a4, a5
80200de2: 1d 83        	srli	a4, a4, 7
80200de4: 99 83        	srli	a5, a5, 6
80200de6: 5d 8f        	or	a4, a4, a5
80200de8: 1c 6e        	ld	a5, 24(a2)
80200dea: 33 77 e7 01  	and	a4, a4, t5
80200dee: ba 96        	add	a3, a3, a4
80200df0: b6 95        	add	a1, a1, a3
80200df2: 93 c6 f7 ff  	not	a3, a5
80200df6: 9d 82        	srli	a3, a3, 7
80200df8: 99 83        	srli	a5, a5, 6
80200dfa: dd 8e        	or	a3, a3, a5
80200dfc: b3 f6 e6 01  	and	a3, a3, t5
80200e00: 13 06 06 02  	addi	a2, a2, 32
80200e04: b6 95        	add	a1, a1, a3
80200e06: e3 19 d6 fb  	bne	a2, t4, 0x80200db8 <.Lpcrel_hi764+0x66>
80200e0a: 95 b7        	j	0x80200d6e <.Lpcrel_hi764+0x1c>
80200e0c: 63 0a 03 02  	beqz	t1, 0x80200e40 <.Lpcrel_hi764+0xee>
80200e10: 93 05 00 0c  	li	a1, 192
80200e14: 63 e4 b3 00  	bltu	t2, a1, 0x80200e1c <.Lpcrel_hi764+0xca>
80200e18: 93 03 00 0c  	li	t2, 192
80200e1c: 81 45        	li	a1, 0
80200e1e: 13 f6 33 00  	andi	a2, t2, 3
80200e22: 0e 06        	slli	a2, a2, 3
80200e24: 83 b6 0e 00  	ld	a3, 0(t4)
80200e28: a1 0e        	addi	t4, t4, 8
80200e2a: 13 c7 f6 ff  	not	a4, a3
80200e2e: 1d 83        	srli	a4, a4, 7
80200e30: 99 82        	srli	a3, a3, 6
80200e32: d9 8e        	or	a3, a3, a4
80200e34: b3 f6 e6 01  	and	a3, a3, t5
80200e38: 61 16        	addi	a2, a2, -8
80200e3a: b6 95        	add	a1, a1, a3
80200e3c: 65 f6        	bnez	a2, 0x80200e24 <.Lpcrel_hi764+0xd2>
80200e3e: 11 a0        	j	0x80200e42 <.Lpcrel_hi764+0xf0>
80200e40: 81 45        	li	a1, 0
80200e42: 33 f6 15 01  	and	a2, a1, a7
80200e46: a1 81        	srli	a1, a1, 8
80200e48: b3 f5 15 01  	and	a1, a1, a7
80200e4c: b2 95        	add	a1, a1, a2
80200e4e: b3 85 05 03  	mul	a1, a1, a6
80200e52: c1 91        	srli	a1, a1, 48
80200e54: 2e 95        	add	a0, a0, a1
80200e56: 82 80        	ret

0000000080200e58 <_ZN4core3fmt3num3imp7fmt_u6417h29e6884e78b4c92dE>:
80200e58: 39 71        	addi	sp, sp, -64
80200e5a: 06 fc        	sd	ra, 56(sp)
80200e5c: 22 f8        	sd	s0, 48(sp)
80200e5e: 26 f4        	sd	s1, 40(sp)
80200e60: 32 88        	mv	a6, a2
80200e62: 93 56 45 00  	srli	a3, a0, 4
80200e66: 13 07 70 02  	li	a4, 39
80200e6a: 93 07 10 27  	li	a5, 625

0000000080200e6e <.Lpcrel_hi1477>:
80200e6e: 17 06 00 00  	auipc	a2, 0
80200e72: 93 0e 26 44  	addi	t4, a2, 1090
80200e76: 63 f3 f6 02  	bgeu	a3, a5, 0x80200e9c <.Lpcrel_hi1477+0x2e>
80200e7a: 93 06 30 06  	li	a3, 99
80200e7e: 63 ea a6 0a  	bltu	a3, a0, 0x80200f32 <.Lpcrel_hi1478+0x8c>
80200e82: 29 46        	li	a2, 10
80200e84: 63 78 c5 0e  	bgeu	a0, a2, 0x80200f74 <.Lpcrel_hi1478+0xce>
80200e88: 93 06 f7 ff  	addi	a3, a4, -1
80200e8c: 13 06 11 00  	addi	a2, sp, 1
80200e90: 36 96        	add	a2, a2, a3
80200e92: 1b 05 05 03  	addiw	a0, a0, 48
80200e96: 23 00 a6 00  	sb	a0, 0(a2)
80200e9a: e5 a8        	j	0x80200f92 <.Lpcrel_hi1478+0xec>
80200e9c: 01 47        	li	a4, 0
80200e9e: 93 08 41 02  	addi	a7, sp, 36
80200ea2: 93 02 61 02  	addi	t0, sp, 38

0000000080200ea6 <.Lpcrel_hi1478>:
80200ea6: 97 16 00 00  	auipc	a3, 1
80200eaa: 03 b3 a6 44  	ld	t1, 1098(a3)
80200eae: 89 66        	lui	a3, 2
80200eb0: 1b 8e 06 71  	addiw	t3, a3, 1808
80200eb4: 85 66        	lui	a3, 1
80200eb6: 1b 8f b6 47  	addiw	t5, a3, 1147
80200eba: 93 03 40 06  	li	t2, 100
80200ebe: b7 e6 f5 05  	lui	a3, 24414
80200ec2: 9b 8f f6 0f  	addiw	t6, a3, 255
80200ec6: aa 86        	mv	a3, a0
80200ec8: 33 35 65 02  	mulhu	a0, a0, t1
80200ecc: 2d 81        	srli	a0, a0, 11
80200ece: bb 07 c5 03  	mulw	a5, a0, t3
80200ed2: 3b 86 f6 40  	subw	a2, a3, a5
80200ed6: 93 17 06 03  	slli	a5, a2, 48
80200eda: c9 93        	srli	a5, a5, 50
80200edc: b3 87 e7 03  	mul	a5, a5, t5
80200ee0: 13 d4 17 01  	srli	s0, a5, 17
80200ee4: c1 83        	srli	a5, a5, 16
80200ee6: 93 f7 e7 7f  	andi	a5, a5, 2046
80200eea: 3b 04 74 02  	mulw	s0, s0, t2
80200eee: 01 9e        	subw	a2, a2, s0
80200ef0: 46 16        	slli	a2, a2, 49
80200ef2: f6 97        	add	a5, a5, t4
80200ef4: 03 c4 17 00  	lbu	s0, 1(a5)
80200ef8: 41 92        	srli	a2, a2, 48
80200efa: b3 84 e8 00  	add	s1, a7, a4
80200efe: 83 c7 07 00  	lbu	a5, 0(a5)
80200f02: a3 80 84 00  	sb	s0, 1(s1)
80200f06: 76 96        	add	a2, a2, t4
80200f08: 03 44 16 00  	lbu	s0, 1(a2)
80200f0c: 03 46 06 00  	lbu	a2, 0(a2)
80200f10: 23 80 f4 00  	sb	a5, 0(s1)
80200f14: b3 87 e2 00  	add	a5, t0, a4
80200f18: a3 80 87 00  	sb	s0, 1(a5)
80200f1c: 23 80 c7 00  	sb	a2, 0(a5)
80200f20: 71 17        	addi	a4, a4, -4
80200f22: e3 e2 df fa  	bltu	t6, a3, 0x80200ec6 <.Lpcrel_hi1478+0x20>
80200f26: 13 07 77 02  	addi	a4, a4, 39
80200f2a: 93 06 30 06  	li	a3, 99
80200f2e: e3 fa a6 f4  	bgeu	a3, a0, 0x80200e82 <.Lpcrel_hi1477+0x14>
80200f32: 13 16 05 03  	slli	a2, a0, 48
80200f36: 49 92        	srli	a2, a2, 50
80200f38: 85 66        	lui	a3, 1
80200f3a: 9b 86 b6 47  	addiw	a3, a3, 1147
80200f3e: 33 06 d6 02  	mul	a2, a2, a3
80200f42: 45 82        	srli	a2, a2, 17
80200f44: 93 06 40 06  	li	a3, 100
80200f48: bb 06 d6 02  	mulw	a3, a2, a3
80200f4c: 15 9d        	subw	a0, a0, a3
80200f4e: 46 15        	slli	a0, a0, 49
80200f50: 41 91        	srli	a0, a0, 48
80200f52: 79 17        	addi	a4, a4, -2
80200f54: 76 95        	add	a0, a0, t4
80200f56: 83 46 15 00  	lbu	a3, 1(a0)
80200f5a: 03 45 05 00  	lbu	a0, 0(a0)
80200f5e: 93 07 11 00  	addi	a5, sp, 1
80200f62: ba 97        	add	a5, a5, a4
80200f64: a3 80 d7 00  	sb	a3, 1(a5)
80200f68: 23 80 a7 00  	sb	a0, 0(a5)
80200f6c: 32 85        	mv	a0, a2
80200f6e: 29 46        	li	a2, 10
80200f70: e3 6c c5 f0  	bltu	a0, a2, 0x80200e88 <.Lpcrel_hi1477+0x1a>
80200f74: 06 05        	slli	a0, a0, 1
80200f76: 93 06 e7 ff  	addi	a3, a4, -2
80200f7a: 76 95        	add	a0, a0, t4
80200f7c: 03 46 15 00  	lbu	a2, 1(a0)
80200f80: 03 45 05 00  	lbu	a0, 0(a0)
80200f84: 13 07 11 00  	addi	a4, sp, 1
80200f88: 36 97        	add	a4, a4, a3
80200f8a: a3 00 c7 00  	sb	a2, 1(a4)
80200f8e: 23 00 a7 00  	sb	a0, 0(a4)
80200f92: 13 07 11 00  	addi	a4, sp, 1
80200f96: 36 97        	add	a4, a4, a3
80200f98: 93 07 70 02  	li	a5, 39
80200f9c: 95 8f        	sub	a5, a5, a3

0000000080200f9e <.Lpcrel_hi1479>:
80200f9e: 17 05 00 00  	auipc	a0, 0
80200fa2: 13 06 a5 2c  	addi	a2, a0, 714
80200fa6: 42 85        	mv	a0, a6
80200fa8: 81 46        	li	a3, 0
80200faa: 97 00 00 00  	auipc	ra, 0
80200fae: e7 80 c0 85  	jalr	-1956(ra)
80200fb2: e2 70        	ld	ra, 56(sp)
80200fb4: 42 74        	ld	s0, 48(sp)
80200fb6: a2 74        	ld	s1, 40(sp)
80200fb8: 21 61        	addi	sp, sp, 64
80200fba: 82 80        	ret

0000000080200fbc <_ZN4core3fmt3num3imp52_$LT$impl$u20$core..fmt..Display$u20$for$u20$u32$GT$3fmt17h2dc9c01e19fd7b91E>:
80200fbc: 03 65 05 00  	lwu	a0, 0(a0)
80200fc0: 2e 86        	mv	a2, a1
80200fc2: 85 45        	li	a1, 1
80200fc4: 17 03 00 00  	auipc	t1, 0
80200fc8: 67 00 43 e9  	jr	-364(t1)

0000000080200fcc <_ZN53_$LT$core..fmt..Error$u20$as$u20$core..fmt..Debug$GT$3fmt17h22d236f9a13856c0E>:
80200fcc: 90 65        	ld	a2, 8(a1)
80200fce: 88 61        	ld	a0, 0(a1)
80200fd0: 1c 6e        	ld	a5, 24(a2)

0000000080200fd2 <.Lpcrel_hi1502>:
80200fd2: 97 05 00 00  	auipc	a1, 0
80200fd6: 93 85 65 3a  	addi	a1, a1, 934
80200fda: 15 46        	li	a2, 5
80200fdc: 82 87        	jr	a5

0000000080200fde <_ZN42_$LT$$RF$T$u20$as$u20$core..fmt..Debug$GT$3fmt17h30c61cfbdcae95daE>:
80200fde: 10 65        	ld	a2, 8(a0)
80200fe0: 08 61        	ld	a0, 0(a0)
80200fe2: 1c 6e        	ld	a5, 24(a2)
80200fe4: 82 87        	jr	a5

0000000080200fe6 <_ZN44_$LT$$RF$T$u20$as$u20$core..fmt..Display$GT$3fmt17h66aee7980ce68838E>:
80200fe6: 14 61        	ld	a3, 0(a0)
80200fe8: 10 65        	ld	a2, 8(a0)
80200fea: 2e 85        	mv	a0, a1
80200fec: b6 85        	mv	a1, a3
80200fee: 17 03 00 00  	auipc	t1, 0
80200ff2: 67 00 63 a8  	jr	-1402(t1)
